c__builtin__
set
p0
((lp1
Vec2e981c330ed69a4af9b38265f50da9
p2
aV415d8c1dafcf80042020c2af423b5bfa
p3
aVbc98c0df0c50edbc3da807a8dbcc4e02
p4
aV134827831f94b5e33a78a1071e71fcba
p5
aVc58e813726083013d7d65b9771302537
p6
aVf138ac4b776740c1bcf8fece129cc235
p7
aV7557b3f6d217335d630f8381d9cd9ed1
p8
aV8602dbde548fd798258a94dc8a39e13c
p9
aV5a55229dea7ac61cde8cc18f473b5406
p10
aVb6ed63ae84f9165c7f6f4843fa2005e6
p11
aV95c22a12f023e14b1b8a9762ab3249e0
p12
aVd2c101cc9337919d1154e7a2ffce875e
p13
aVa946e152f1300c15db71b16e5cdd418a
p14
aVe60dfbbfe3e4ff751fbbe4073cd40d7b
p15
aVfe5055b47e495d14c7c2cda070f671f6
p16
aV509783d93bc6376c3be590f2e9ca5748
p17
aVa447d4069793d775bbd876e40b3e38e7
p18
aV30db93322f3716c31c83e8a5b1b6b964
p19
aVf34f24afc1a35392e5bad97473b927b3
p20
aV727d315a41a36f1d9d995c0c666c6768
p21
aVdb8b5a26f04e10ef68515c726495b02a
p22
aV6ba00f8bdd3e01a2f1cec7dc8c0e3592
p23
aV615a072ed97dce2587bee3bb99490586
p24
aV87e7792f2193248bd5b9547abc1f0684
p25
aV12900ea7d5a6ec9d4e223706f9cafb1e
p26
aV1f834aebb964e20dbf36e0615db41edc
p27
aV57bee36cda4d15d86fb350496dcaa31b
p28
aVaef007f21292821e4b55e308a4db5c60
p29
aVbea67b5955799f8ab4b798003c0ce854
p30
aV7cb122cf1e8f0e7b6e66ed1be60bf155
p31
aVdc1d8939cc84d7cb734b787b59a9fd43
p32
aVc104f0b28494f8e535414e1b58b28e9d
p33
aV0428a67593ec2cf43f83dadda832fca1
p34
aV4d9c96118471cfe0a7e6cdcee21fa8dc
p35
aV2c148acdd129c67544034a99f63f0cb1
p36
aV5026a8a04a055145396be086ab4d04c6
p37
aV5de232003aafc090f1f44263acafc02f
p38
aVf99740c683bb3b2ab18ee71100fc396c
p39
aV57761828d0400b9cb39c43cfd4cd9071
p40
aVb699f8ffe6c424f44b08e5a24a5f3805
p41
aV34bdb8c4b2c610317a01f101021170bb
p42
aVd082b1fa195f799289450d64bc31b4e5
p43
aV3b1f7e33c109fc31e5a74d9109965735
p44
aV601c1998aa691a0a45ae4b66b8df6255
p45
aVef4c780fb52b4c25007d2a2b8fbea3ed
p46
aV0494a7578a07e7c148f3113932f9d0fc
p47
aVdd384e364a3778e99c0b36009a1073b5
p48
aV05adc05ccb7ef9b392d261364432c729
p49
aV41b48b8e9ad79cf3785eb81958246299
p50
aV5d48eca1d1e3003cc0fe96ad1c29765f
p51
aV006ec069197ee8ca78bb65673bf866c7
p52
aVe8c729739c9ae1e2d1c27a5b2ee8b8bd
p53
aV0393e7dbe383197f70574da9d7eb6653
p54
aVfe87fd4dbd57f9ff6fc8e9abdb856b09
p55
aVb48de631944bdc60f35bdb126a9d6051
p56
aVd24c9e1622e54a9bc4fc3cf50abe6e64
p57
aV6097f9348c93cf4397ea989867879f99
p58
aV423829b3f9c5361cbc60055dabae64d6
p59
aV1ef9ec95a1cff7f084ad5180af841f44
p60
aV20cc6f28c0198e197c9d08ec598da13a
p61
aV8e0b0b72ad4def650d30cf46e6bacbc3
p62
aV413b8a7206c40fe8a2f9ef67fdad702d
p63
aV1a56f6e6cf3e17a3364ae63bac84d345
p64
aV2c31437e0a7006747234fbbba50805c1
p65
aV0ea00c0a91144aa1cd0e25bf18c5b295
p66
aV3483a6275044ca5a1e2e7a02b5d0cb5b
p67
aV23acd32d2de2785df1bceea1969267fb
p68
aVff3a3b0512a156e10b32e052d33f0fe5
p69
aV7e9cfbb454cdde72b60554aa8ae0fb0d
p70
aV7caea1dc92ecc2298913399694a2ed9a
p71
aVa976b85c4e3d62a68189585a65518c44
p72
aV9bc22c75906bb273e715664cae0697eb
p73
aVbe42da026e3395f803bccd85a91a894c
p74
aV73009e1e4449e600665caddc629c05b5
p75
aV6e5d58c794f36a5935b50980d1b9d54e
p76
aV3320fe3919b3bc69d545d018a5ecc98c
p77
aV530de32f6a313bbbcf6314feaf42778e
p78
aV6c127a93539af03eeb0c796cc47bc5fb
p79
aVcf1893689e00b5c8a4926c0e9d7f83a7
p80
aV247664ca5b412185a06c49bf6d1ef4ca
p81
aV95c83544ab2131e823be6dffc0e9676d
p82
aV7c0d573a6d547f5b569f3ce503178ded
p83
aV1611bf7a93da7e173a8d684332834f90
p84
aV37cddc4318875fe35dfbf687b89c8726
p85
aV6c5df43f6c64a15072530f3bcd1f1ab2
p86
aVdc58ced39f53938a1fa5896bd71da96f
p87
aV7e5ff8b773694974c0839911b3e44928
p88
aV14bde4fa4566eefa2db2aa73c575e345
p89
aV27c8522f54a74c4c9cc1b5e452b9dd8c
p90
aVd37c11f1ce41e3e3af3b37617a704a4b
p91
aVba2601f165c62c8873073df71331a282
p92
aV12ff0a3f17494c715f9a71566376795a
p93
aV8e5bbcdb07e7a1d14ea166ffb2c2a27c
p94
aV0cd83b98d5b46efd5b0c3a975232519b
p95
aV7d6036f6f9e437182039620dd339054f
p96
aV0df4a06e324c8cfe54104e2e524b4481
p97
aV803eefb8e3bb4ace64ed40b03bbb75a5
p98
aVbbfd3817e9656f619106b24315fe92a5
p99
aV501623425114e36dc02566b45bc23129
p100
aVdd29998e7b786201ca5a860df4a990cd
p101
aV2c88826046d30d8f339f46d318eeb13a
p102
aVde1b95e75afc1898c412b4fbcdcef9e5
p103
aV485682c6f731da9efdbffdcc3a2b7d39
p104
aV59a5b3b59aa43ff4616bf8642a7b101c
p105
aVb5b4120bbb9b5f038144bc7c9d2572d1
p106
aV59fdc2caf59a219e3260ed881dabd844
p107
aV54a141fcf622fe9d9cfcd78e8084b04e
p108
aV0b613c64c996d378e1a4620a5df4c15f
p109
aV7386d7297b2ab057ba1583751414a2d4
p110
aV977e095fcdb6cf46193c5475b61632c6
p111
aV501001bb4ad739867da72ed2ded86959
p112
aVed3c755782f02aa90d350c5768a781a7
p113
aVd5cc65102fa88f79f105761bf603e416
p114
aVad32e493940e1ff2844b0088cd33c60d
p115
aV19f7270d0c3e980767d25ef796881127
p116
aV9f74376a6dde08a5c30ad1a6039346c2
p117
aV2c91f5a2e33871fc6cab045fd6536852
p118
aV79fd237de53016c4c350582bb2431d16
p119
aV5b6ae55ac8fbe437b998439da8c048dc
p120
aV328327561c4a06ed05984440c811a317
p121
aV9a9c3d70184c106b05280a7452cf3490
p122
aV90ef97b16c3c9bafe6a8cbf16afa32fb
p123
aV3077c35b3fe376e76c88f6dbd7d06c1b
p124
aV42d67c2c7804de77822208d08d0db6a6
p125
aV3d3c73b6c4734d9bde956e39c3610a63
p126
aVb7f3327942250c67daec376d863b5e6c
p127
aV369820bcb09103e16138e6911c1c88b8
p128
aV751b8fe7c9883c9ba71f947fa38fde32
p129
aVaeeba9c2bdb5d443a75a83e8c720aa8e
p130
aVc366f8e021bf98a908452c2ceeaa4a21
p131
aV20529039785bd848ead1ec7c93d3e9b7
p132
aV28d3e87201dc7615cd2118478f12d253
p133
aV8dab8752cf11256f3750cf198558d609
p134
aV03c166395ad983d15f944daefd8ccb3d
p135
aV97527b9dd65313b62acba560ca8ae5d0
p136
aV2661fbecca0bad807e51640a0bbb6349
p137
aVc5135eb5a8b9d998eece491cd52639d1
p138
aV9b5a8da9b6e2f4fcd05698cbe748379f
p139
aV9ebd8b85f149c70e365b1f73cdd18492
p140
aV516519e0fcd5dd4f66433edc8690307c
p141
aV0627454be838d83a5159d8f072f740fa
p142
aVfa7845478d42403830b08b6ab8755e63
p143
aV87070a2733fe556e8df91b3713732e50
p144
aV898210380986db03ce83c72e3d1d03cb
p145
aV63450c2229ace16dc27fed078d3431dd
p146
aV8d583a432b11a2835857c448d8109cdf
p147
aV34261c8ac3fe7b721f31452b041d903f
p148
aV1ca89bfcd7a190c9fb8d281f27acd2c7
p149
aV0c5c89e6105f1a71afda65edd450fde0
p150
aV3e74378ad0a93fda58f44ccc6095293b
p151
aV44c1357154ab75f920909e623daabde7
p152
aV8da38ac3eb21c1f76d2ab8c4b5f8935e
p153
aVbfd5cdc4628e538a70ac76bda36bcde5
p154
aVe4b14cbec8986011883881f6b4428b8c
p155
aVf1f5a819919ad8909183005683522731
p156
aVe1efb95aa9ca7c6c91acdea2f1cd1961
p157
aVb0c434706c2e5778658ff8cc1698613f
p158
aV120b0954fe374f8667dee9ec61984b49
p159
aVb1fc0cebd5984ae29a1bbfc9d5784828
p160
aVeba74b720af077dbbbe8144a59f25a72
p161
aVbf052f70059dc6b3acc842939bb5d38c
p162
aV93e0631e9d7da85468a216487bb16fd6
p163
aV639d5bca57e4628769fceee8cfb84217
p164
aVeeb896927cf05041d167356e110166c3
p165
aVe5fc82eefeaf60626685cec87b7f637b
p166
aVceeb1a879c0054ca02bc1f602e710e2e
p167
aVe3441a0e53320158ca4b965b15eb9a11
p168
aV5d539821e0639fbc7a3392d1850609d6
p169
aVe815294463c46525baf0e1c124deb914
p170
aV92c3381fc5ae8481c40f6e288c38e9b7
p171
aVd26e3e8cd3102c04b58773561958f1ee
p172
aV59adc5d39d16539bfc2dd3e8610302de
p173
aVd450d13b16390fa3ca4590426e0cd754
p174
aVc33de92a6d024c580567c89ffceb737a
p175
aV28368b2219ec723038d6088e839a1295
p176
aV131a983567ff9098f1990b3cf365920f
p177
aV15837b36b6b561d5c484b498d6e919be
p178
aV02bf9efc9a0aaf98aa759dce146dc91e
p179
aV2142ec792bf8502b46db488a1b233b67
p180
aVc4c3ce167f889708377a12c754fd0d3e
p181
aV2ccfe48bd25a5a3dfe4f77ff946b6f73
p182
aVe65f4dfc01d9fcaf4926fa6cfc16dbcb
p183
aV0cb808ba927071525b3bbc7c5631b4bc
p184
aV299bdf0f8230240bd87a0a24ea7d3bef
p185
aVef6b83525eb221a5cf3c4316832d5f9a
p186
aV99dbbc7868ae8f06f8d94602fb000991
p187
aV0c7ee8a821033fce788219ffc6dbf023
p188
aV417b5a9d42946df8f93cb3d112206384
p189
aV8ddefa89bdf9e133a18bc2f1595d158c
p190
aVa82a532f04d8aa28c700d7e26538a287
p191
aV92326f5457c58775cfa23667fc0bb619
p192
aV76afc62cf107444c387782e8e7ce370d
p193
aVf275c28b85928bb3f5a21baf41028127
p194
aV057e4a44c6b85c1a4c65819335accbcd
p195
aV40f34fe2768a12b506af4394aea0d3a3
p196
aVda1ad7ba2b0f5e10438ec985978941d4
p197
aV41e0014f2e2f2c6bf75f1458df73b113
p198
aV9a16c83dd79203d68f28d59324c5f3ce
p199
aV23e9d55da3f729700d68cd7406a5bc95
p200
aV1b7abd508edc584c9a971d9d38543366
p201
aV2fd7f7a57256374cf9dad3ac4997544b
p202
aV49a19a87f015a8b6b42c9334afcea2e5
p203
aVb782af6b0ac860e5287019747c385166
p204
aV7872ca37b36b416a1a17fed69586a745
p205
aVb0a936e7ab232f6ab0e24de056978bf2
p206
aVdb6a71543c0fbf246129583bd37931fc
p207
aV15b05b677e6d57bfd8abb646cbdfae96
p208
aVa7049e7695a7d29999e3607a57740037
p209
aV92ca55b9eb1dea9c9a36cccceaa01386
p210
aV60088e42ac1e7ad563998e476f420160
p211
aVad44899243754315fda0d5fb28e598e7
p212
aVe93dc407af482cc9359b5354b77edfc9
p213
aVc6e0e6744a65c4b4be305685b55ef432
p214
aVff778c42ef3601011fdc9190fa5d36f4
p215
aVd691d4ac89ff43c8470c7c0caf6721f7
p216
aV2da960466eb8dd248d9dce65c5e2e651
p217
aV78e9d1c08dd4c57ee3d988cfb88d2fe5
p218
aV76ba8aa81ee706976429a8bdcb9c94df
p219
aV5f8d70603d05bc50915a330917b75f3b
p220
aVdb9d158fa3016258d287f7c5c10dc31c
p221
aV9b343675d760f69b8f1348e5545bb01e
p222
aV219dc1809e2919cac458969ca8c645d2
p223
aVbfa685a5bea6ae371aeb20d55052ea09
p224
aVeacf1a09816914d56afb28a776abd753
p225
aVfae2bdcea6c26276beba135880988711
p226
aV6ed614794f5124ed9d93523dc3e6c4ea
p227
aV1d5ba817bc7d41295df9c4d814239d95
p228
aV5bdf0ee0de8a272bf6d3618d502cabcb
p229
aV73656c678d351584be38cf846438f02c
p230
aV72096faa036d6f35685cf0b1da594591
p231
aV284b2fb9d7ff67050a49d6f2624418d2
p232
aVf2fe4d7b131cd344d0711eba0b8ec6a1
p233
aV17bc60f5c81bfc47b6fca5d8b9f9100c
p234
aV789ac3e0ddefea952a616b4ad00b2a8a
p235
aV4339a03534a5bb655ec610584a197da3
p236
aVabe3135431904373445cfa6e8ad40220
p237
aV3e8589c9d76a12fddc4f867068723cf0
p238
aV716d9887fc2ac94156e48fda74bd07aa
p239
aV1fc79cc445367354d5f0481abedf9ec9
p240
aV7333b450ae81819d5894defbefeb2987
p241
aV6e4349f86a3e03831832d56e7d1e5bc4
p242
aV37009c8be537293676c9b39ce80476de
p243
aV758b405469bb01c60e4e41dc06e30b98
p244
aVe5a3057f0be99cc18b8a252a0629cbc5
p245
aVa935691f45defe2c16107c25495a89bd
p246
aV800e94ad46aefa2839d64cc2b8c78ca0
p247
aV93b23b4709c0e3f6feda91e5086dad1f
p248
aVd0bb0ff62450909c453343be65c2f5dc
p249
aV7a5153daeaf6073298f1762817861285
p250
aV12ef09abf7e5c9ce8bfd55b925ef0c57
p251
aV2869e2d8d56b8c0fe10118e3961403aa
p252
aVa8ca6a060c1c6eb347e7d3d108c26d0d
p253
aV1d40780182e3f05fd6a9b12c3d755207
p254
aV8dca854d05d7a262f38afa5ed65783d0
p255
aV8494f70d1860d38b053575757ea84f3b
p256
aVb46d082c4902ca0051a399fa847371b9
p257
aV193e4a0f4d8d1a1561ef998631f5928b
p258
aV3158177c44a2b91078b3d648ab01dbc5
p259
aV02c00eb68484e9c98b34eb3baf08a96e
p260
aVab873341cb9773e971ca89ac248e133b
p261
aV4e652ec269cc0787793070a437c37ccb
p262
aV416e7e3b88bff6269f83822d7bee84d6
p263
aV2f47e1f07080d6a76f0a9122c9bcdf28
p264
aVbabfd5b161bd7d4425e2c5cace1e2f7c
p265
aV105b9b27357354612270203534dd89e3
p266
aV6ed839568b3b56dc6fc21883f23f32c3
p267
aVd7eb1e73ec9c65997ca7b13ccfb133d3
p268
aV5b831846989741e614cf133f95c4165a
p269
aV5476169da07f2c575952b8b973643770
p270
aVafb7e45cc5d92485b61a81c83b5434d2
p271
aV9f83e1671901b3c05b1c55ab5ca193b1
p272
aV5bd9499267cf2166f91ec7554c376e97
p273
aVaebeecafa1bec61805fb8e0af69b965f
p274
aVe657decc67cdaf32f8fc77c51e0ea7d5
p275
aVbb9ad955b05af62f933161190d3c40ee
p276
aV2b0b325bc60c355e9073ea1b75e4b3d1
p277
aV250dba14524f85963296874baf084269
p278
aVa195253796e9473ee46f64dd1f215fdb
p279
aV72cd4a412ad4b20c585fb7c30dbc4ecd
p280
aV6f80f891cf76d01e46697842b3d15c0e
p281
aV0b1291f18e033f29956384404ed7ce06
p282
aVba6886a29dd8ee98d6355fd0f9d65065
p283
aV1135c4ab8e250eb62630fac0d24ee6ff
p284
aV1d840c7f21b5480870ab7d115d375b70
p285
aVbc737be56412fff381f54a8d0f533613
p286
aV806955994fb261ca23091f40b18bb2e0
p287
aVea367cdbc7a94cff32165c6e8d3b23b0
p288
aV3f1c07e42e8ecddf0ed91c12674c1ab5
p289
aVcf92e29b5fb1bb8d620a711f20ac0c26
p290
aV75ea82c3984b042e40953ae298f5deef
p291
aV122a1ac297a6685337a5c7d01813a79d
p292
aVaa179c593a7787bc2eb8172201863fd6
p293
aV225a93d5d14500e571584259a3c569b3
p294
aV4c6a6b0f0ff59b5fcfa5e15350a26eb9
p295
aV5517e0fb2fcb8b944f075e25aa392018
p296
aVe252403e3254892cebd158db7b430e09
p297
aV10ec54fe2f5f018ade9277a54495049a
p298
aV13622137608f491affbbddcfbd53e554
p299
aV19464f0c34a35bca81d27c2c5741dbf7
p300
aV54488cf81344c942ee8c4ac5eb9551f2
p301
aV5deb67709d1b458d6d1e1d800c01116e
p302
aVc5cca96ea2529084dc2860c969a5bd72
p303
aV473b9baba43c6ad1ca4d9ce310ab879d
p304
aV694bdf2ff1e344368f0734ee0b42c73d
p305
aVfb0255f049f5bc96806bff2a3ee8d023
p306
aV4f4878bf73e3a874d992ff16511a93d5
p307
aV418579f496445f7581c2b2d8a0a636d5
p308
aVf883df9f589d6f7fc5bbf2d84544b955
p309
aVbf5a347caa7409c4a69c02825272a573
p310
aVe0f5811de9d73ccc4c7e064909c3bb03
p311
aV38611237a1e9bfcb937d5a6156c3b865
p312
aVbfa4b0fae495a07f1026b68917f0d3c8
p313
aV06dade4d631ec4bdf788ad515dffc78d
p314
aV77db278336beaa3dcf968fea2340e27a
p315
aV3e0251dc5a491809e20801c1fad601fd
p316
aV920b017a3e785c1c4c165970077afb14
p317
aV42851fb2be48b1702c15bd7942ab567b
p318
aV2ba101073347b227efce7c6b8b380ed5
p319
aVaff8e11568ebef2f5ec1222448f56cd0
p320
aV95fcbecf462642fb54397ddb678a672d
p321
aV72cec8cadbcc430c5ea3f5c082a6f688
p322
aVe7ff5df8d1a08958e5e2fb828f797fd6
p323
aV1aa954b28b462a869aae1e35f8926860
p324
aV07eb3dbc71b82c01716f7f9116fb375d
p325
aVdc214a19f7ef4e8103afa2fc488d7187
p326
aVe94888c96e81390d615a685802e1d951
p327
aV73d865cdeb85aba3095c624ca5d85c33
p328
aV60486d3ba17d9358726000015bb7a039
p329
aVdae23cb6cef7629fa9b896d853375a6f
p330
aVe29215dc65d140ce6a64a5fdfd7970cf
p331
aVb40447fededb3c937089c5111a778d5a
p332
aV69f9195c173024e94fa7c90968c2c824
p333
aV53bb0e8a53b4faf75234381775122650
p334
aV862c3a4cfe477166c71ceda8b35ad7bd
p335
aV6272f0728c8e32c8a1eb1020c9433b51
p336
aV8b82131612a82e87a2c562276bb7dc8f
p337
aVd90556d98d639e82df9e8396bed12ae2
p338
aV2ed2d6371370d1db63ff722386cbd759
p339
aV85b72760fc3e5a63acb75ce163aedcdc
p340
aV848107c9279308f8aedab6d99d606fdb
p341
aV6474c94e64974a994559ea3f5bc8f054
p342
aV6b19d74222d4b83c279cc85af04f7e70
p343
aV91228711caf95c71e4a4acad2fc2594c
p344
aVe5940d259933f5358aac86d9c24d61e5
p345
aV130861f17bb6e79eb93faaca79ce839f
p346
aV000859cadc1bba7a3303ad340b47c3da
p347
aVaf26447d8397da9caba7e043434968e3
p348
aV7cc44e07b65882f8d330048d10a71fc3
p349
aV170b3d324781977d556a2893f3ab236f
p350
aV3c51ac8dc50bda66215712f83a10b70c
p351
aV98ea68608e9ae10116c73d9c6b44ce11
p352
aV8403ee5c9431a7a4e98c60d3a6fbd8f7
p353
aV1a7470fa13885d324d0c11a9e2ca0e94
p354
aV1545fddfbeb887058cd7b4c7cf1c237b
p355
aV7eee02218b7088ba71fd9cb55905bd71
p356
aV049faa2a2746a1916b0208afdccfd903
p357
aV6f197412658f54e1ecc5ad8ce5e93c4d
p358
aV19bce42660399623c2bd8ff41204d31c
p359
aV2128c32daec5bfdc7c26c37ee917ca8f
p360
aV1910103ba4acbc9c6e4fabb4c859b801
p361
aV47c8b36ff860ec5feac9acbaa7c7f61a
p362
aV45eebeae71ade0c1a9400c582027d75c
p363
aV0dfbe0242f1fd713e3f808e2bc98a9bc
p364
aV59954b926cec95cc78091b69795f3c52
p365
aV1151776f0ebe4441c85da97dbe02e276
p366
aVa43d2dae0aee66e2c54c24828b0daf5c
p367
aV70740942625c40d2d59b6a84c4fa7793
p368
aV73460b38e393f7da6c27e7859d1c6da9
p369
aV331e2d2a3994f6447e70a77b5947ce16
p370
aV02881a26be5718f119038bb3208ae9ef
p371
aV57951ca8518b0c886b55a7212e5504d0
p372
aVb3cd5607396d2b2dad7f18bd6052ff6e
p373
aVba4518a976aa2bd296db899959d941e2
p374
aV8b9bd7052de5bce8c86ce5a31e9de9c2
p375
aV16f74585352118cadc58b391a56a2a04
p376
aV87af479c9c860360bd9aadd288da1f5e
p377
aV66a55ca6034263cfa76ffe5e4e5527ec
p378
aVfd0a85a956c1bc9460e235ca20112fa8
p379
aV55a8eebe1e0a088a1fef07b22b4a22fa
p380
aV4cdc757c4822ab77856315d36490f9fb
p381
aVe221bd6e0a81c0095b57584474556db2
p382
aV0e22dae0f6d11e1c43bea864f4948653
p383
aV66ec5cc911c288dc4acafb9dabf7d813
p384
aV04c77a6bc4de2934f8f112b29628fa39
p385
aV7bc59fbfee644b36a5223aa063668f08
p386
aV55dc86dd34dd55e7028d7c66d5b8c070
p387
aV8db9c04bbf4b9c810c0ab194a34b0874
p388
aV5a09897bc81340683a60a7639f776cb0
p389
aVd9b1904471e224500f53693a7c8b4c19
p390
aVc55feaaa1bfd9ccf6494f099caa7d797
p391
aVd5d8cc1c3843c98ada92ebf0005c0f8a
p392
aV67497a1b3280bcd7646163fa69ff01d0
p393
aVb2ff5632baa3c1383c7d64dae0ca3742
p394
aVe56e67b6bb80b7df3a1734689252a594
p395
aV3802d317f429b5ef2e81b60d263f8dc1
p396
aV5713f1fdd348946bb781b9a9ca9b55bc
p397
aV0c0e6855aa29b1851485bbf5c96547cf
p398
aV2dd916b1f4e94f0b3e8d89468138dc67
p399
aV3812693e369976266f42e7d658cbb085
p400
aV91644798c1b4e194b9ddd8009d98e986
p401
aV32fcc42f3affefc8d1bc60c30d7f15c4
p402
aV638aff2bb2dcc1d7708ac7146d82d008
p403
aV8ec18d995f341c351936a8fec5fc71f8
p404
aV53c7efc0423f804b7dfe05ca36f403e0
p405
aVc60a423ce184921ab92619e48719e496
p406
aV8444b404ae98d2db5ba475d023385bcb
p407
aV5944fd24ea4c8c6e5e21a0276e2c0880
p408
aV2d618844213f07a753436211124bf763
p409
aV824ef530fa909ac35d5c5d2c3d1b7f2d
p410
aV1a7399323ad191c527e13a359b059e15
p411
aVb87ca89f4e8db5d5f7c2ece7dfb348ea
p412
aVcd01addb578901ed4b4b395fc71330cf
p413
aV8b0dc84c1f298a16ae81b148df4741fd
p414
aV4a496b04fa1c9ba7f4232f4ffbd62248
p415
aV89d0784cdc77cdec660ab6c1e590eaea
p416
aV8b3a301f961b0c255d38a4982e6e1227
p417
aV3f6182bad3b79bb2c2e127eb206aa604
p418
aVd34d1827610c9f111650e5642dce2710
p419
aV5b7bfd1cedb3ad4a5d06de574a0d48f6
p420
aV9da0843898c829070ff85b902fcecc44
p421
aV6fb788f69ef7a6b86b90f5331cffe35d
p422
aV70851ee412d9e7837de3f369657a5447
p423
aV1f1dc5b718e35bffdd75632baed94abd
p424
aV558c97c10a2cbe7f6f7be74a090a37bb
p425
aVdd87e6d2b8d9a5f1749508da063d0205
p426
aV2d16d45f02b419dda6074435451dc05b
p427
aV1cd07a3d350331bd83b9a8c7b6ad37be
p428
aVf7203b114b06a05ec35887064ce72651
p429
aV92d5b6cb6c744f887f94215722cdc9f6
p430
aVdb8835c1a07ecd476923021ff435ab99
p431
aV129ef04431d9be1127b31386b1b48da5
p432
aVd0b8a45757d45ba6e279fdb30f041421
p433
aVd5dfb0806fbf8e3ba38355519fd1f7ff
p434
aV9456d2fe69d18af613246a307ed357bc
p435
aV2f5972ecd2a8d718cb8981b8ef7c6088
p436
aV4602e04464f943d0fe9a71f08aa3b4de
p437
aV1ec26fff79e8533b8cae2d6137447b8f
p438
aVc60c24ee8c48829faaf9251af1f932f5
p439
aVbf6f1c5ae2f53d717b409d3858fbd4c8
p440
aV34bf718d90e5aa5cb79c0a47fe9ef592
p441
aVc5a5e53cd28b72734f8fba633bcbfe63
p442
aV111d23807e64c1d4a2820a2f01373dea
p443
aVfbd3b3ec71e5c314e2f317de35a16ec0
p444
aV6c7a885fee807c25af904ba66e6ea8fd
p445
aV01c51afc1f1fc0d5ae9c88d1eb6cd74e
p446
aVbf294ae34563666c64f1620de0f3b27c
p447
aVe2fd75b3895fb0d8b0a71862b8524fc3
p448
aVb5be9fa8815fc23051e17f5798702475
p449
aV365be74f64928475dbd68f109b4e376d
p450
aVb7dde722cdc9896273b84ee638c56292
p451
aV6f50c71707d04734056fa5d2a45f34f7
p452
aV8b50f05b9c30df77bccfe36ec28e0253
p453
aV4b2ab1035d41c56cc4361537b0956e3f
p454
aVfb430f2efd4b3733b4d8c6232b9d83ce
p455
aV0a1677adb448549437e1fca901e19901
p456
aV3e312e73c5f46766bfa9b333d77dc36f
p457
aVba8a81503a45d38142abc224bc84a69f
p458
aV3cc3863ceb563ffb4ddba412d9eb57e5
p459
aV4b2109b508af31eb687e996c4243871a
p460
aV4a101d96c780293d587da77f7f288c09
p461
aV04ca74bc2e08864a5323e8fdc67091e7
p462
aV0d7b2407a9ec6a3149c7410c2c52e574
p463
aVa89d48884bdac94fd0cfb35096534e9a
p464
aV5b2865e25df68443bd57a774f50980d8
p465
aVeacaa79e2864e9ee676e3e64a9ac0d87
p466
aV1f015fddc1b6111eb685451de3333a3b
p467
aVe2de7be33a9c0b091e760847eaf2fd93
p468
aV77262de4e2fea62404c9c5f2ea657afa
p469
aV0a736e4d5ea6ab6bb767e9542f6fde27
p470
aV44cf5e6d59ded90b71241416961ecb7c
p471
aVdc5f6c2dbd0388a4fd268573e9ab717b
p472
aV20501471403de9821844272f9d3e37df
p473
aVba6776d0faaeb0a81f67721eac709dea
p474
aVeb221f84597dee5dd4b51e720d5e7d91
p475
aVb4fdf32fe20ea7617e044c82d9b71110
p476
aV6f25de6e2d6749c7d6ad3c39fc13c767
p477
aV9755dadfc0596751ba9735f1d0ff63fe
p478
aV20215d4d96e1e0d5bb577ad0d6744ecc
p479
aVedcc610c1cca870a5cef85025103f107
p480
aV0dfa85517817eff548d593252832a23d
p481
aV1993ac39579a9c962fe861e0811d000e
p482
aV0fe9743939b7433bdfe8c1e35047ac64
p483
aV42e8a1486b88ea3910ef3ec1b7889975
p484
aV2c1032798ee955ce6ccc62950f33471f
p485
aV8c923b59fc2c880d8028e153ad83d902
p486
aVb0193dcb4a5382a321d5e14285a1557f
p487
aV875a8827afb305d90294f06e4617a25e
p488
aVacee2acf166f566e76cd321678afce54
p489
aV5b5c217aadec84756cf9eee284a427e6
p490
aV2412ff290945fe4b4c89ac363c078085
p491
aV7b1e40826ff6007b9780614bcffc6df5
p492
aV13a593dfabfe1f3d80afff23a38e9c32
p493
aV966c4d194959244cfa8c6cad83142e0a
p494
aV7ee131c68e0200de9cd8842d538b026a
p495
aV3f1500b3e749ecc84477fb5224309995
p496
aVd3d8ae8db0da87b5bf22243f35578b2e
p497
aVbc87479145496909dace9bd34ec2c786
p498
aV5da6975957556b935abcb040e39cf465
p499
aVcbdb17a457db00f885783802fab553b1
p500
aV175d26521c21409b8a646b89d66d0ef6
p501
aVeabcd667739f3ddc4d7f5a29b9e98125
p502
aVe40b3e66e6689f06be271c48c260d8e0
p503
aVc939becef00684bc0ecdb43b255df1ea
p504
aV96592647307ffeb675b9e8c1d6dd82ee
p505
aV9515e0bc9413a6ced19ac46caa8ff0ae
p506
aV9e9f99e0119b9898f556ea34384f17f8
p507
aV51cbc3a4549db79f37a0c75771c7cf72
p508
aVb24bc02c89e254f83c8f44a4e7ab111e
p509
aVe1bf780eff8a021a66107797612734e6
p510
aVdaca337e2bd232d4e3a72fd6245586ad
p511
aV84b1a82c30dbb318371a5bf2ab069824
p512
aV5f2dc8d9145d11015df571b44d94920a
p513
aV6b3c72cfb58f7ed5961c86d765e10c20
p514
aV2a0c502964fa0242c013d13d2459059a
p515
aV7544595f20a97888ddc2ad2cdf05f87e
p516
aV5a862be70a1097c3e1b05a2a6fa5face
p517
aVbfd5a9f0fa8c2c69a8ec4084bc2a514c
p518
aV31130954f073af47edd68b2258d8c14c
p519
aVf1df1f1fabdfcd2d9c47c4fc57807995
p520
aV0c96d443bfeb1fd18d8a38a54ba9cef2
p521
aV8214f6cbf0595ba19cb8f239bd637ee4
p522
aVa13128071b55ef6e0d59709a4d17f26d
p523
aV032141d82d14b693a54563c4c6ac3cd0
p524
aV77e4612ea0116f4e4a25a5f8222d9c8f
p525
aV199d2daaf0263835d4594024f947488e
p526
aV48c0be0930b3b776cbf814a8fc3f389f
p527
aVf87a605ea37a4fb35449deaf964bd369
p528
aVa3a7bffd03b4098a8ded838e34373342
p529
aV964ee35df49b77ac7e772d2c83398dd7
p530
aVf9325d461734b457f614a37d706facd4
p531
aV6fdeb1ee5cd4e22db2acd25c510cee03
p532
aV5e52b400214cd7a1044c305393d5a181
p533
aV8f3d0ee11a1ea65d91253c6b0d8332cf
p534
aV53de6c083c5e1136a5caefe4e516c1a3
p535
aV9086f97605c5633c3e2b01ed07ae9ea3
p536
aV6fcde7458a159969b238a58f82b1f3df
p537
aV726ef77d6804be52efee8e88c5c70327
p538
aV80fcfb91e4378ff368596bad7837f643
p539
aVf09511086ec892467b98c9f70f640580
p540
aV2430417f3149ffe65bc61c2d81b15bf5
p541
aVb8cc682d691d020eef15414da7fc1773
p542
aVa73cfcb5b85195d518c155122576cf8d
p543
aV1a82d5e5174dc2bc1e9e0599908a5744
p544
aVb5943e43515bfcb7a28c0907e419b05b
p545
aV57cc509381a924226d410ec3143129bc
p546
aV552cd80811bc37bb6d169be920da9830
p547
aVce050a87b239cee490026a2c993680ea
p548
aV17c3b4aa5e9a7847a7394abfd698f084
p549
aV62bdc8e6bb35e51e0770b7777569b587
p550
aV54578beebb59e64fe7f870da37f73e51
p551
aVe76232bbeb7024d2ef595667338880d5
p552
aV028e451207b0b8a53db9b916ab11b5f7
p553
aVf34cd2af13bc64f8c42845ec1eaeca20
p554
aV83f6ab296ded538ce6b770dadccc1d42
p555
aV99ad3896e303e09511b322298f73dea9
p556
aVb37192f17638fcf026a10a83bdc715eb
p557
aV3b5b802279e6798f867215917055f13d
p558
aVf0b242688dda4a724688d76854bc1b6a
p559
aVa92efd325120eeafd975049eed09c9fc
p560
aV4ceddf42380ddfe7cd79d2559579532b
p561
aVc9b0d3c178f272e02c3ff5e1a1898ddd
p562
aVf104cf5d9c63d79c24fb5cc2032ad175
p563
aV7bdf84ed3e8ad983a05fe1564396190f
p564
aVa5f11bd19595818b1de539edf0591743
p565
aV9fb35ff34b4c9d8fb0fb361eadc33072
p566
aV3a39f6ed8c47122a04509ec8658b91ca
p567
aVcdc6e0941c9112a224c970a3e5acd55f
p568
aVf3ce90d6b275180be246b70abceee0bd
p569
aV2a0b931eec7f4e486b0cdda1a4d80f88
p570
aV93ef55e51892d890ac4af9cc76ee4cfc
p571
aV6ced473532b3fc2bb44e6e92b49245d1
p572
aV7d70d2744130b8e76449d04243b64d7e
p573
aV3d8494ad015b81e229b7f17bf74f595f
p574
aV72811227da5bbd2baff710782a915477
p575
aV8608c8ffb990ab20af72eb37ff54af7c
p576
aV4bb8ec83997ffc516aee3af34f3d81cc
p577
aV2ddf822d00a0c6bb507badfe966ece30
p578
aV2719dd7e37c65b20d91a98bfe5d48cb0
p579
aVbc553b168db6b4d5940a5f5855261655
p580
aVfeaa5ea06aacf241e0ddb9799f2a617f
p581
aV5cacd99c867cb440eb0a8be8bf046f86
p582
aV4a04e06286efcd9af82ef9d50144c2ad
p583
aVb381716a427e74653e3b38fa39ecf9fe
p584
aVf67c85dd5b17c81e2b0d2a29ffced727
p585
aV633d7ce21cf819ed0080ea718fbf16c6
p586
aV44f33f4f5207224ade13e6d9e2627fb5
p587
aV11ef1144dacff0745b70f2a588f1ddb3
p588
aV704b6c51a409a86548e49282cfd28dda
p589
aV0b72f6c481d0c05141cd4a78b4e62b21
p590
aVa2e9e3055080d7e31fac40641e2fd1af
p591
aVc2cab66d93f6de052514edfd40c45a88
p592
aVc14ebed1d6be23d2dca567431caababa
p593
aV19a55d99781f1776b999c024424a404b
p594
aV561a9b042ba1da9e04ceaa1af4775913
p595
aV9d084c0b19b0e6c29d129a5fc41c4b62
p596
aV81b6f6b8a165cc28d45bd643a2cc62e0
p597
aV190e345bf620f808b2679cb78ffd3382
p598
aV366066c27a0eddc9619f1e74b48696ed
p599
aVb44967451d2b109be8bc9bf542d5a462
p600
aV323a05173527a6829e21b5e4f567f770
p601
aV293f907e014a388645584c0b2d505a4d
p602
aV56ed56350b397583115c7573cb992537
p603
aVe64d1bc72b414667c630db80e34ad37b
p604
aV63b703a51855d36e9b9804494e58af79
p605
aV2732501ad54ecacd68e04d05e3c68867
p606
aVbd91e68e03f53c8cf90aa2df4e26b37d
p607
aV853124efab368a796d83595841b05ba1
p608
aVc02e91e7464d9a6a17f419b066447ed4
p609
aV0ffa7ea499bfe521b0803c5ba26348e7
p610
aVa85cf633ab0b98e2ec6af235fe566949
p611
aV58cc774c33d46341b723af6d74accf64
p612
aVb20a59cc9e1cc3242d7dcf4d66b55bfa
p613
aVda4b26ea177b3f007ec549a05b3892e4
p614
aV009992e83b6f7d61db8301c37d9f6fbb
p615
aV799d0f862209309ad4b5476547a2be64
p616
aV4324e37aac091e55f1054d596b41bce6
p617
aV864b1d9ae35ab3561b60b564e4b93b7b
p618
aV1304371056d893c8568a43753c4d6914
p619
aV2d084f2da1ba509e10174016d37ad8fd
p620
aV0c07590f9989bdf0c12ee973c16b6ab9
p621
aV2856d64207c37eab0b01365e88fc737e
p622
aVf33cfd8c27fb7773510969bc324cfdab
p623
aV56bc43b797c0df661203d652c1355abc
p624
aV115e80b08cc3dee9b5fed6af3bb748eb
p625
aV98acfce5e23fe5dd13048d61b7fa18fe
p626
aVddc95c8e85cfb13607492db5c981dcf4
p627
aVc7a7d55e55a5352b5f101af1ec9bf1ec
p628
aV6ceb9119e574a5a1ce4285accd3a198e
p629
aV403af5670113a3681e03c4c6a055f2ee
p630
aVa0b0cc3096d85b6969726fbf8d53aad1
p631
aV25bea33db3f4db96110f73749c8beed6
p632
aV1cf41235679ea32ff07c63f02db7be41
p633
aV01e254afec8737fc04f0bd126c9e422b
p634
aVaba94afcb9f59b9230466a7d069e90bb
p635
aV8ad174f54259d4e938ca29629a2318e7
p636
aVd78b2686d741bd1f9e78994893bda10b
p637
aV90f9e5ab44fe83c879b745c51fcb953a
p638
aV8d4d9489ece58373df2d7f611136715d
p639
aV73063554a483aeed17864f7c1ea74d38
p640
aV168334868c39e5b30c0cca9dcf948a26
p641
aVf419986aebf663d54065b4a95f773f1e
p642
aV0b6ca63a118757fb9d9d07d49380d838
p643
aV3c96bc80af5508f536dfdea67fbc8651
p644
aVb4fb9c382cad983ac2d228bc44c979de
p645
aV538e17de93e7a55a531d266eb6870f51
p646
aVdfa0d95c9df96e5fac576db0b82ac3b3
p647
aV52dd866b7a836988252e20d357542149
p648
aV07cf4a0bc9bd47e1cda334d363a99d65
p649
aV37a2243668bdc3e9c890aa6880d12b93
p650
aVd6bff776c3d46f664834e0e36e22343a
p651
aVf3caabcff62a4d79342fb7a306f2651a
p652
aV35d09b9e737ad47df4d640ca2c710259
p653
aVe3e8677dbe336e5640012bb610a63029
p654
aVde44d4868ed35dc9e1e7bf10874531fa
p655
aV5a2b672595346dde9d4dc64d3439e033
p656
aVa335fdfd7c3ecaca993c1416db614d00
p657
aV699262c1f56064f4af1f41bf60bab3b8
p658
aVe935c2fb2a5b8a1196d7ba1da30bfba9
p659
aVa8c1d4e474d790b3336965186db4365b
p660
aVf550a49d479b2d255af09739f910fba3
p661
aV44c8c174fffa7100b0ce8bec18411244
p662
aV47e96d900c77bc5fa4dd86d2064ce10b
p663
aV390ae2fe937fed84a82a2cd96b9ecf80
p664
aV79e87bbfbd75da882de033bb8c1f2b83
p665
aV5d366b7e01b2badedc86c1a7f1d3e9a5
p666
aV83d1ac2a85dcbef602ed1a34aad5f6de
p667
aV7ee8f8ed9b3f61ce3257ae88b40578d6
p668
aVa47a9a36e3513a4c33df3f71b900c7d3
p669
aVe5ae21f41a7b71d5aa74f7690683e955
p670
aVde3d90288685bab1df29e99461f2f87f
p671
aV85be0c730f0287f8105203722228ab92
p672
aVfb0c747b7965729401850ac9b1e940ad
p673
aVe623346b1fd643ce00715a6fbd0e955e
p674
aV58dcf10ac342f64f9f0bc45b786eb020
p675
aV1ba854103f7dd5c9720da540fa8d39ef
p676
aVf987c85deb7fdf03df8f5363926464a6
p677
aV9f06ab6e9bd459ad47407406cefada01
p678
aV49058efd1366e796d300470103490234
p679
aVad1a1ba1638d1152cde66838c550e478
p680
aVeebb596086ee2a7534cb2c1499e3ccd9
p681
aV097493a808e10af8a20fac01c62a3958
p682
aV277e7d549d37e399148c4441cf6516d1
p683
aVa761d6be52cc2f86da4949918189eb34
p684
aVcfd00b7ba90059112bcb9877efb07ebd
p685
aVd212783730361b5e2eede0d31a8c20a8
p686
aV7e698d2f3ad1d6fcf8b08d33f734a438
p687
aV98a1fafb723f8f9d5ae550629cd4abc2
p688
aV5b9a7d994941df689e258833cb53b8c6
p689
aVfb5e16a7ec64ad0a5ba6d58a04918923
p690
aV24bbdd2b1da0fe57d38d4af5868ec5db
p691
aV7d29af44fa34e81d315414b8166aa775
p692
aV5143bed9f6f0fd75e2b3d2cab03ad318
p693
aV0f66eadc3e69e9b691ee31769b8e51c7
p694
aV00bf688f090afc00dba619bfc478c0a2
p695
aV19e4c5981a8f6f480829755559f68c65
p696
aVb23a4eec7d35893e0076436e7b9a1855
p697
aV4caa6ac78746343d59edaa4502eb4cba
p698
aV54d6431c5797e3cc5d6d8e42a72022c0
p699
aV3495755b3e35934d755a2a143b1334d1
p700
aVf557d70003eb7cd02c51e24e0bf915ca
p701
aV7a55b96454336a71e0038ecb1712eb35
p702
aV59841b6da3c7fa63289643c850726f0a
p703
aV2372203de6331f92d2611e8ed50ae455
p704
aV058b4f0bb8972682c5509f1c25eb0dae
p705
aV9c4b0284a97763c7e03f42927dacceb9
p706
aVa46916d71942ea1df8f37f16f6cfccb5
p707
aV2c642b3a90e3c1755e024f8ca8eb095d
p708
aVa942c8bf1d3a08d4e33e1947278993c2
p709
aV8de283e595f1c26511a6c37616e326b3
p710
aV0981f9de94a3ee056395cf6a726f8431
p711
aV63bc7a7b592e1e2c7591d0e7b74f6b0a
p712
aV7d33a7a3ad53c128bfbf78c4ba52ec09
p713
aVcde99400691c2c5ab89e487da3cf0e31
p714
aV33f9b5bf87a97e56a770fbad2766cc40
p715
aVa77c667168a9312fb00e62202a4c149f
p716
aVa34f7190ed05720cae9ce2c077bc3ae7
p717
aVf1227ba45a0d8923261c6b5fdb54e23a
p718
aV29026891f203ab0b6f26e53d032cd148
p719
aV645e35c8169aadde36d6652e7c4df244
p720
aV81320240e25f6efa8c253db88163d315
p721
aVbd239d811ad50c518f7542bb735154fe
p722
aV418fb741d10c569b1e7db287de030f41
p723
aV66ca36c0da8265f15e6bcfbf7465b54b
p724
aV84b034d9646177a93f6f41feec3f0852
p725
aVaf6fdd1c7d4b64b155bdd654aa67c329
p726
aV97473c24a8c9ea74c77952cb29a0771d
p727
aVfd80936f0cf92957f0aaa2ea6df8f52e
p728
aVb8ec83d723427571688397edfb7dd3f0
p729
aVed0f75f8a04485e0ef5212f98b6f2024
p730
aVc6d04b2a1d89eaf5217f2492e19e1ada
p731
aV1dcfed451795930d6abaa7ad4a4783c5
p732
aVc36ca27c3afd78fd2f790d3e3b766341
p733
aV03011a323e8c43b6ead913f35fc15084
p734
aV61df9e069c925519bd2d0384a86c8dda
p735
aV6fce3406b96b08a4282861656c80143f
p736
aVf228f1e095dd5d9ad1c8e57bc1f4b44e
p737
aV536684f4fd4c8df153556463d6947e6a
p738
aV7718a3db05575fd40aaef59afc8e3bc7
p739
aV874988ba5d4846d951f7383311db96e7
p740
aVfcc062592fb9aaec59af1bfa08c7513c
p741
aV76852c7267029c5654dc5fb24769b1c3
p742
aV239893a328e1ab7f9ffa9fd98e43602c
p743
aVbda6eb044749d1e92f73eba233b700e8
p744
aV91819318caa21f171deb2e40525105f0
p745
aV7095b33c974b6159f16368211cd0fb03
p746
aV8d0ae82e43339a78c436c03fb3c75b4a
p747
aV474673db70a1e94459b2435756c4007b
p748
aV7b9eddacd923bbca53167894549df046
p749
aVc3bd7f413b1fb2d6c9c0c599474ed956
p750
aV0651cc7a65c10f392ca1ecfe1f8aef86
p751
aV57198e3c1d1677c09930fc5fed1d5088
p752
aV8a5de7ff0cd53e5f7a4645d9e0a915e6
p753
aV5e5e3436e8a3ef49d38b520b2766470f
p754
aV56d5de22ad71ddbcb204ba8290699c97
p755
aV0974703d88afa583697dd91a23bd3e84
p756
aV7670255370bdee9df857c671b772111f
p757
aVdabbc536cfa7f54b811a48a90e66c2ca
p758
aV8b5c757c43591ec639596877a4acadb0
p759
aV088d6c7eb0c77bcde021dec3abdfeece
p760
aVc779a6969a8ecb191df44e9d39786ba3
p761
aVd8a4d861c2244e150c56c37ca14a19a3
p762
aVc304c35df59307bc706ca8e9b0df188f
p763
aV0884c2e4dad21366f606a3f47205d162
p764
aV94bcbc17138a9c14bc3b89b43725193c
p765
aV9cc224a55a36829b6d01458d91754141
p766
aV01683f6e4d8931aa035b6cc01d0e9c79
p767
aV261d67931ced97b343b208e1615ea301
p768
aV33a9c239698ce39e0eeed4442ffa4c30
p769
aV590ec82ce4f508f5e8769e1e2cd473d1
p770
aVc74aeb186341435a4660d19ae9b2b053
p771
aVbc927e70e703279935af6d6f9ac471e5
p772
aV062601b823e2aede84b3bc84ac3bfc6e
p773
aV5e849fbc99b328a52211a3668cafdc49
p774
aV4b40de7deb875e62481d9646b2eea01a
p775
aVd72b41c0f2a00531ad131b8e3dedabd6
p776
aV36f25a1d64aee98172a81567ff44f07e
p777
aV58a2b64480049813d4db8ea6f83c17f1
p778
aVbb86c9dfe25eefd3109c795e48d0c6a7
p779
aV6199e2be38ed67e53082296d93c54b24
p780
aV24ea48c7fef03be6e73d674f8a7cd402
p781
aV712d29b3f19fd1a5cfba6023b4092943
p782
aVb87d9f224bb953ed57d0af176dd60eb9
p783
aV860537fa39563d90d12dbce1af01a160
p784
aVa61b017e0a2c469b2fe586a34f20c79d
p785
aV525bdb0401b56a9ce7b75c9af8a38204
p786
aVc899e489cc636c0dceeb152bf9c056e1
p787
aV699873d14ca2e478d8dc11ef3e82daee
p788
aV4f3b907015bed1e63e9c5071770788a0
p789
aV3b84fca49c2a25b0f032da9b2d157ecc
p790
aV5f24d7de66905180cfeddd673d32dff2
p791
aV22604c70933866678bf8cd13eecb15ce
p792
aV3d2364813c01a63d1e8e9fa9fbf3e88b
p793
aV7f2f272a0654465753790d7d6317827c
p794
aV7df76c6d47347fc1b772cfe10af19cd6
p795
aV505211268c05543ffe0d82c049d8d427
p796
aVada8f47a5d1dad258ab59ed14f67bf6e
p797
aV8e9f981ef534fcf16f44f7e80a999330
p798
aV845790a540ba433fe3006139b88ce342
p799
aV1d24c0e04c6d75ed678dac3dea268b1a
p800
aV587e1b201d35fb2c0a8734b461a38053
p801
aV2064d843f3ac1d66489022fcb4117249
p802
aVe44a38c8a67d94f8ece7388ab717d5ab
p803
aV60686da5a813e79e956faf5ba1042787
p804
aV3270ffbadb3f6430bd51e3b644f25aa9
p805
aV1e2d2b50d1b8888225847f617b4bc522
p806
aV5abd3fcf3aa9c084ffc3339945b761f2
p807
aV8536341648490b3a046070d6ec184349
p808
aV8730c198a15d9e2512332c2b301ee20c
p809
aV983e0fd04020847d2410d5bce062dc6f
p810
aV8ae18a377923c11c13ae0ab1a6a9426b
p811
aVb6c7103627512a577505ef64fe97b0ab
p812
aV8c7d1a300f706fdeef8f296d2c4c4bbe
p813
aV2dcc21328591e5049d6d7f4309d0ec4f
p814
aV1683a5777e7568497b3a4e74c4c1151b
p815
aV7c0b58c4b14fb6eb839ce6582f644465
p816
aV7cc3d1ddd71f487e951412f724cb18aa
p817
aV33f59fce9636e1d78ea307ec033ebd8d
p818
aV330ab553a789655e21bd7656dfdffb7f
p819
aVd8cd742c4f509c89dca4b4248b9755a8
p820
aV40a1281ad427f31a5b903fa196fdf712
p821
aV1e72172e46ee139e35050c19f55b5989
p822
aV498c9ef4217ec484068b87651ae4d6ef
p823
aV8add641e6c0d1dc299f288e9b44624d6
p824
aVfeae41f2109cbc411844f4ea25e3cbec
p825
aV2fbd92b21ad5b2b7844e20311388d753
p826
aV6fa4a04af0630fd887d9ac39a9e29bc7
p827
aVfaddc7c2786ea958b5e594b2affd6531
p828
aV3998493cdb41817ee5ad175328d2cf84
p829
aV16d31305fdc22710b43776c8d2ae6534
p830
aV8b302e81c3163cca72b3c596ac6246aa
p831
aVbc0bed43ccfed6faaa015443fa649461
p832
aV3ce7752d87a97d1aa6e76042c0c83138
p833
aVc41bbc2b3969d5c93851027b3697ff62
p834
aVf3a3385fee93239cecf407c12f3ea717
p835
aV909f1f2faf502418a495f0e23cd4d7b5
p836
aVda972871cf5a55aa88a7ad72649ae415
p837
aV9bf0dedf39fafa6ff12cea7e369ab278
p838
aV9dee07ad19e437e4e9212ccfdd67b6b7
p839
aV36733f0a27288397e2c470076ce24306
p840
aV3f175128b34b4da5ac77a4d11e7f4bec
p841
aVe7ac96b3b3513dd7ec74470aa7bb224e
p842
aV7034ef99bacba2e671091f5125800da5
p843
aV0970f947b898ecc0ec035f9126dd4e08
p844
aV3aebee66d463c9e7f39d760d20b7632b
p845
aV78280941d5025e81a0b064021fcd58df
p846
aVd60b4556fe54fb3061bc9f7477bf4b4e
p847
aVd2f9f6e749850f4d9e476504074d46d7
p848
aV616cea2dd66ca8c8d50239831b8b71f2
p849
aV8f9cde54b40af8a9b5bafa0af1c85145
p850
aVa987c53e041979384c6f2f9347831123
p851
aV52b1c81575ca48c659369b613ff734b7
p852
aV5ded72ca48993364c90b1ec16c736a34
p853
aVb6af0a25d33120a0529d1bb61321587b
p854
aV49aa39609ce4c30f52a5305a0471f909
p855
aV03ec9c901ceb0893b7e084c9ffdbf9f7
p856
aVccdafd98d0dc629888f7e2e502cc26dc
p857
aV1a74e253040278ab36d0646a17ebe7ed
p858
aVe4503c0fee61570ec05db41cd73899d8
p859
aV305dbf27ca6e5e9b5baed8248716bfa5
p860
aV34c72803c61e56787b33424a09e97a24
p861
aV25591865db6c7cfa52f3bcc6393738ab
p862
aV7f3ac60ca703f56bdab934056fef5c5c
p863
aV42e8fbad3608b3e6bfe24206a90233fa
p864
aV5359bff67e32050e2d02f126108ff31a
p865
aVed2195472257a9c5a2526d36d9ac693c
p866
aV7c25d0d68b07d2523c6188aedf5f94a2
p867
aVfd6a8de5ad48095d8663373166cd57ef
p868
aVe53fd8ef0eba4de8fde0ca07b0d246a6
p869
aVb09565211a6949177cfdb31fcf930679
p870
aVc01e4050b9a1ec16f479f7c0413db917
p871
aVdb5906d2fb28e0fa45ce62f3e343cff1
p872
aV88b05b38d335e6e4b4eda68ae82e6187
p873
aV9ca4b052f015ac811b05dfc11f0fbbd9
p874
aV3c45b802df18cd19f4804875087aa925
p875
aV3b385a21fba7988cdc90543c4fca33a1
p876
aV800e1ed98dc8c2763604b34ec31f4a57
p877
aV041c50e52293787ca739a4925e339620
p878
aV1ad922a6dab36de90832e518c422b90c
p879
aV7b3cfa07e2bf54be3477f246c88c63f7
p880
aV20ec36b1ec93ed5ebb46c3fc5da4724e
p881
aVfe24635fe933f20d4b78b578d138d67f
p882
aV66c4d3ea3570049c540859eaa60591b1
p883
aV40f1065989bf98236636cd49484e2d44
p884
aV03c7cd557093760801d9e92ad072babf
p885
aV7ef10f90bf6517e5e7dc6534c9ecd2c7
p886
aV23769950f5e1f486a431e70781133094
p887
aV1b6f2a50f6c6a3af235c2f0cd30ee1bf
p888
aV0e98c51b8da29983b6da22a0225e70d4
p889
aV02e31f5400f738d92ce2ac861c293298
p890
aV1aa90511bc1bd3c05366ec8eaca6582f
p891
aVb2099878cb73add59d37c2133e88c484
p892
aV23752c94f69b75213ebfe574d88deb7a
p893
aVbf3eb8218d2724e0946ef5bdf509e358
p894
aV188669f06e31cc5ef036157814ecdc33
p895
aVadb03d6aabd1cbaf312a839e18a2fe7a
p896
aVa7f931c92bb38c7a9626ef04e80c20ae
p897
aV5abea880687a38298ddd166bfd4122e7
p898
aV3015a3aafc9d8e602b34bea35a4414b5
p899
aV251d3b86f3d7f6e47bbe32321173b089
p900
aV25af6848335013c8194fb784a7e22a64
p901
aV813dacb6cecb20b532a0e062e6980650
p902
aV990513fb37f31b6bface20c487f06d1b
p903
aV962ea0ab084250990f429e06c51add4f
p904
aV59d580d4a86d88223a129c890ffff129
p905
aV894b9f10c1920f1677749a5e20e597e6
p906
aV205c8775b3adfebff99e2ed0b3a7f818
p907
aVd56452bb53bf2a1a8f591c0ef61f63c5
p908
aV451e63ef0273502d43c0699832dcb571
p909
aV09b0dc56976c718fd1b776bc9b608884
p910
aV8d0cd2f78a2e437a48ff05e5e9698d89
p911
aVa744549f483163dbae2e8753be05fb3c
p912
aV83621c31060726c98effd7a3ab8831de
p913
aVff282043e8879af2425dd9e03a458b56
p914
aVf788f746bf64897b896f928afc462a27
p915
aV849ff7d0dfe71c510f6f312fd2eb4597
p916
aV4b0156c08fc9c881d871fb790c6bfbcf
p917
aVfc902921196034b3e6600b534b753ba7
p918
aV28218f95bbac18844386b373e43bdc13
p919
aVa157f7acf2750b75ce8050dabb672291
p920
aV111488ca348497bd91f817561ef16bb3
p921
aVe55f9627bb1b98ebbe19e59c975f1f50
p922
aV321973c9ec510458e4569e87f6322c4b
p923
aVb9f01422e82172fc4ae7f3ae54387073
p924
aVf070dfc6a5a23bd78c539f54acd65056
p925
aVc4357dce82d94fb7100f6119374736c6
p926
aV13ccaddf052f041781180f086652da62
p927
aVf4174ecc5156ee9cbb2068dfa4267e42
p928
aVd941b0ec049987476ef3cfde4f928689
p929
aV509c4948c169bb646466e5946f91f0d2
p930
aV2838c2c19c2e152ca6f3b501491e1e77
p931
aV0bbfdc6d581eeee1a67df49aa507fd1b
p932
aVb20e6ef745e889a41d03494ff0187a60
p933
aVf115004668c509fba471472a42e1c73e
p934
aVc3006f5caa8cea49e0432a4e6458ff2d
p935
aVc4a72b86bb5a8df365e74a9c2fe448b8
p936
aV91521939699bbea2eeca6bfd496f2f37
p937
aVf2c70520a7d8776baacf300c9b56f8f3
p938
aV206e3d90abe75ffbbcc4d0efedb1f7ba
p939
aV98daa47ab51c5782139f3e2f4e3b9a1d
p940
aVff887018d6a0c614168d48d78889ecfa
p941
aVd9d2ca11927fe3f8bdab59f62f44a977
p942
aVa0b17a08e41666824726c01e739ccae7
p943
aVd7a9b8066da28c5f012b454915df881d
p944
aV2397bd39b4122c496da4c1357f2e9b1d
p945
aVa997b98349ef6f8a39cf99f2cdb50179
p946
aV76c5cdcfcb614ca7bc00000d7c64fbf5
p947
aV4e107f20cd5339adf4c2f95c0d8a96a1
p948
aV260bc862758eb54ab9eade22305cbe7b
p949
aV9b8b4278f75046d0c212710228c64b84
p950
aV0d056c3445e4e44c77ab64035a81325e
p951
aV40c7612d26ef744fabee61a70224358d
p952
aVea6ff1ba6641c4a61970b892e45fc312
p953
aVa36673ee7b2ce62b167322c2e00eeea5
p954
aVeb2503a2ab798ff0e0db5a154c022eb3
p955
aV3ad49f70271627270a639875d28887c6
p956
aV6142a96f4b78de21a948364be48e8f1f
p957
aV6f16c7d085e8ce88e3150d4afb7d54af
p958
aV9554fb0cef1fc7720cb62b46d6807757
p959
aVac0c2fff4041f32e1acce7f303595bf4
p960
aVa632b837a8cb91e1b334c2bf83cf384b
p961
aV0d554237135b7b61ade2585a6b17a7de
p962
aV4e497d41a596e0a5a8349a2fb46a3b84
p963
aVb49602e06f845903069048c0b706a566
p964
aV2234d88f2ab6d2e15f260412631f2ae4
p965
aVd1c9472952196c362d84d39972618eee
p966
aV58aeb3910cfc07e2eb79421a3a5ead61
p967
aV544129a5d5f6614670582b4679d2e62d
p968
aV7e3e4fbd121474ca15e1a0a512ab67be
p969
aV0a0458c02bba1b765452bb278e426dda
p970
aVe4bd22d22089293e22e233aa89401429
p971
aV78c2cd3fe037b311478559c6f09ca716
p972
aVa513933e0d233d398715b63e309015d8
p973
aVd2f3519cef3a49f47342b9124276284a
p974
aV59b2879240e7fc05f51a8f49b7356e11
p975
aV0331a18afa95d91546bc79a8700bd12b
p976
aV15382d1355b6e725eba780e59754bf96
p977
aV7b7df3de9d2dc6f383b3463bfb49ca72
p978
aV0f2c166e7bd70a325bc04464e71f8e04
p979
aV880c09e800a58bc7efaca652088ee1f8
p980
aVa10210e69c47e712ad0815e95c5d7749
p981
aVa5e30d9f414a9f48958c5c8a36c5f76c
p982
aV2bdb5e43a2e5ec01c307d4e5f60e179e
p983
aV9bb504a3f92204d758031c7a2b35e5c2
p984
aV60ac7ad2f192ac01577278222d32521b
p985
aV876eed4d87a9691db6f34c898f12efca
p986
aV0c692574787b5513562eda394de3e86a
p987
aVc512eb81586c53037f47a662b265f246
p988
aV02c01f0ada1f21f945d6d11a329f2084
p989
aV3dcb5cc55cace3ce21b9e2d234339012
p990
aV6ce971bf424415423bf88f4fb6813124
p991
aVee35d924f6f58358ba8f606b81d01a34
p992
aV0aac1ee1408aa4e5bbe95e333d74f065
p993
aVd2b7238b9ad259e34e75de28e49f3d80
p994
aV726353b5edb726cdf7d999563d4d482b
p995
aV78e67f7bb6a628ac13accc101ab504a7
p996
aV86e9f2439a5661f83acaf29b36d918af
p997
aVede672afec24226c789db4fb145a3f40
p998
aVa34ecaa7bab795fdd86f7cb8b86fe0ad
p999
aV867d6c9bacb70ad0152a9d7e7feea473
p1000
aV5ed73dfd5e5690642bc09e1e704c5b5f
p1001
aV3f0c8037fa2937cae7bc216d8b2d9e04
p1002
aV2b34ec77c5b144d5b7dfdaff15e2cb48
p1003
aV969987ea1374c7112a948a8e8dc4d7a1
p1004
aV05b4424c080265aef33530a12dbf28fd
p1005
aV346b1aa6574999fe0d21da06b28a15ba
p1006
aV4e913a0269575d66d6cf6befab5887b1
p1007
aV649e0126ad3fcd9917f2e6149ec3f04c
p1008
aV0248c760c6951045626080043dddb448
p1009
aVf73b1abba858f94d28869dcaf7443d96
p1010
aVbce992e3b12df9d7c6d9c004e6a1bd75
p1011
aV26e2970083756df322e0c25f0a79b893
p1012
aVe4eb809a5de2efa6cd2bd4e0d717fce7
p1013
aV290ca33d3663979fa6b627c94e497745
p1014
aV432c667dfdcd8cb1ad11aab8291d91a9
p1015
aVacf8cc2354d00e7df0cd58e97d8f95e9
p1016
aV940ffe3292700903725a7355a66a1b5d
p1017
aVf49c530f7500ad21eb30930d3a09876b
p1018
aVf2c30724521601964a220d0ff30f4689
p1019
aV78eb9d60cfc580b4c98d29c742e729cf
p1020
aV42ff6642c83cde36c8eb7c497aa8c0d1
p1021
aV7234738f14b907324d2f22afcec7ba3a
p1022
aV4bc7a3ae01e4875098fd300ce934f41a
p1023
aV7ff60c2ad1cdb2d53274cffe19cca0e4
p1024
aV53540d23cc7b8311b59f0e8e721b49c0
p1025
aVc8b9376fd06e14c113108d85a41d9eaf
p1026
aV1a5d1cabaa6a0871dcc0bf7bab41901f
p1027
aV5a9b55202b2894846de070a4a1e816d6
p1028
aV945b57b6573fb7e927a02c0618de58bb
p1029
aVa68ba8b2f81ac92caa1e7a7dd6e0b53c
p1030
aV317dd835696ad023494da57b42387c76
p1031
aV823234c9384764e9049ac7ed50b3dac8
p1032
aV5491823a0a6bafbe1d2194fc889620d0
p1033
aV1583d31cc2efe7e3a4bcb21d9713cca0
p1034
aV829aef0f7b3fa1c9bc68cd8408c1f230
p1035
aVb86a96247a416d1344ce8e15335b5a2f
p1036
aV9a263bebf0b48f5c204587e4a923558b
p1037
aV6c138bd29ac326f57d5f46f4f09af0bb
p1038
aV6a55afb7c3b9207392ca6db48e5c95ff
p1039
aV34b7eeeff0edc76f010a842dde972759
p1040
aV520bafecf32e88705fe906cfad7c63f0
p1041
aV55278955f9afc9b3bb6ad1881a649257
p1042
aV91c5269da88dd3fc401ae4c4b643a009
p1043
aV82d7360cdf9260978d0c411148e03e6b
p1044
aV9352bb902dae2fd72487a6d6b0977e72
p1045
aVc89cc497ddeeacf27177cde706acdc84
p1046
aVefea6f8b83fe72bcfc66c52c1f96c17a
p1047
aVec0824bd97fdd269dffa4fd8f50a8198
p1048
aVd0b7e3458511c5ff350d7e4eae5f72f1
p1049
aV5d5f2367d17e8209bf659c8365800827
p1050
aVe94a3e6e7e9e88459ca7cafb44ba32c0
p1051
aV176f81df917ae1f3e350cf62eb4a9342
p1052
aV8077620e946a4bbe648428201f466183
p1053
aVc6b2517bbc6bcc448afa3855794771e4
p1054
aV0703f96fafff8b4595de8157fa9d124b
p1055
aV8b1fd94dc68450fdcbae72cbb613c965
p1056
aVe50a290bad542e1b75461329279433f7
p1057
aVe128ca2929f1a1a2905e02f21383e94c
p1058
aVa08a2840a09591e6e5de66c69446cb1c
p1059
aV9acabb6a7a07023c07cf18d9bb3aa735
p1060
aVe9fa9374c9c46d10b4c4a8077febebea
p1061
aV861c622859030989eb8fd86895eee769
p1062
aVc3eeec372af8a2b47031a382af672991
p1063
aVb559b3a2cca49591436cb661735d9f1a
p1064
aV20693e09fff3bdb53c0c0d31743b2a6c
p1065
aVbe1599f7df33c2e5d5a39f9a6cfefedb
p1066
aVae581ec56825ae80bbeaf25eef1f428a
p1067
aVbd8b9b11b2faa9ad0e235fd2431534a7
p1068
aV07b22968a111e4120cbbea977dd5584c
p1069
aVd4dbef4f13ac1dbc9610350f3252aaae
p1070
aV2a86dea6bd86baf5bbb422b2241068ff
p1071
aV8df746e6ba0caa87343047a67e3b5186
p1072
aVfe8f78685b08d879445f209a7ea1d4df
p1073
aV449613d7d705b24b138b1c31f9401e60
p1074
aV3a51858c356e13c52fcbab7d9b2cf2b6
p1075
aV1e88c27f7b159a4c08cac0ef6e6242ee
p1076
aV507c261cc3df130c64ff63e9a7ccb4f5
p1077
aV1680e4c762449555a480577bab2a46df
p1078
aV38a34129f971edc7f92cf2697316c04e
p1079
aVa1634b79d69517bb3af052776533c70e
p1080
aV9749a9e01ab435a2648a122187acafbb
p1081
aV4b5422c4d091c5c7680a5f59e60c8bc6
p1082
aV147119cfef61168d63398541796f280b
p1083
aV6725232e7daff31f211a8bb0a5d7a0e2
p1084
aVad432c913eea4b80a69be4d35f7fae49
p1085
aV822b524d8ae93d04a0aebe188ce81556
p1086
aV3404adaeeb78ecfe449c664ea3368c03
p1087
aVa2479896cf8279dbbdd818eebf316c55
p1088
aV13e41a205ebe01790d45e4bcafba4dfd
p1089
aV74cfb3ec1d679088a68da2a84ce363c6
p1090
aVee76aba99ec1575b36f938b8f974a7ee
p1091
aV47c002fdf71ccd2a5c0a21282e00c3de
p1092
aVb05608afb15b41c23290ef7f3987b686
p1093
aVfff29729ff9ca34d89bd456d0795d099
p1094
aVcd5f4074317b0e3318ea4f6d9f880c15
p1095
aVfd99705546661a7e29886a2a8bc5cdcf
p1096
aV656c3cca13ecfecc7ae0a18e71cce9ce
p1097
aV182750d1574923deaaa2d9a516f7538c
p1098
aV25528f61ce5e6602cfafc78d575dbdf4
p1099
aV8ad9dbe6ba01fee185efaf2c895fcac8
p1100
aV526e59415899943eb9fa15230da82e0e
p1101
aVc4d03301bc95fb05a703d39ea6ad34e4
p1102
aV21fb2a0a590ffb0a2db483bfd2ccfed7
p1103
aV7afb2f9c0d2bac51a0e939895eaec2ea
p1104
aV0961e46ca63820846cc41f6660f0b7b8
p1105
aV7b70b9d5c3aede6b9834fd8f27afdffd
p1106
aV17631650e4cd4fb464aed1e237158485
p1107
aVb02392f802c592729417bb5781237b1e
p1108
aVd1669379bb7ea7b6b21e3cb13f70c3bc
p1109
aV7e052727230fccf19024f41a2d55be35
p1110
aV33d2c935489b4c6788f980116ab1c1ab
p1111
aV4a06736ccea5f3219cdd3020986df8b7
p1112
aV0d387893819cc68c0764edf4fd51d5c7
p1113
aV75f5bb41f7198249d4efe46d4782c5d3
p1114
aV4e8959d9c668044d5ce98aedc38b5a98
p1115
aVd9cba9db9295b3086da601a8795a0344
p1116
aVddfc82d04981380eb3982b0abf973b19
p1117
aVb65f085548ba8383bdbc52c8ddd013e6
p1118
aV0676315621daa238e582494c9b360be6
p1119
aV32b8f656186fcd9d6118a7e2f3cbc341
p1120
aV08196cc362ed3098fd5bf59ee7bcfc67
p1121
aV66f24938579f4f9ca35a11500cc36006
p1122
aV65a36e822c3c9c3b72be86957d110f4b
p1123
aV46fea77f2c36460983ac437198e6075c
p1124
aV91ef12446b2561869d0e1dbe651e0361
p1125
aVed9920e76c088077148d991f3e4a9c55
p1126
aVec157e05b74171505e934b502df61a4f
p1127
aV59cca17b59619146fe41bab80ca68302
p1128
aV60bf85cf0c0293da3a29413c308427ec
p1129
aVa3ef1731710d0e40ffd937e923b0fe50
p1130
aV2b9eef0c49d507ebff55cf78e528ac11
p1131
aV14aab44ad31d718942f25b96e49cf94d
p1132
aVecfdf96b3e74ec2a2a8422b239be261c
p1133
aVe34d36f3b05089bf744d5f0d83807817
p1134
aVb06a17ead65a8fce45f1fc31af759a53
p1135
aV6ca1d4e865869b20a9049165a1d3e519
p1136
aV11a76818c11dc0a92fce7f22e2eccd27
p1137
aV710ea7aaca915313665f0947f25b55fd
p1138
aV285b2766e5795a3ed631752aa54435af
p1139
aVd6102ebcdf74912144c2a70c1724e04c
p1140
aVfe271b7b070040c62b0d47e781c94cb7
p1141
aVce917cc61c219ad10eb3343cbf0174d0
p1142
aV7e7bd797261b23bdbc2dbce3fb6b6e27
p1143
aVe78b5f1a1ec972dd50d41b563bf48d15
p1144
aV58228ebb07ec555c92be20a4de074fb5
p1145
aVad17897f77ee5f855b97882b1c4cc9d0
p1146
aVbfab6cf35d0c1378c289f09015481671
p1147
aV911cb88e494f36036cdfd5ba8522d97d
p1148
aVba416227d3e975d39711faa0b94ca1e9
p1149
aV7037f223188e74634b5328876f30eb9b
p1150
aVcdc4014270135ce39b7a45bd3cd86d1b
p1151
aVae3d54e7739bcb446564ea9fd1ca0ac1
p1152
aV955b29cc37ff19bdc6b6ca0261c84223
p1153
aVdb93f432728c5091daa1e8d7c2aa1811
p1154
aVd0ee6875a221bb6db2a3eb40f1e9c1b0
p1155
aVd1f0f4587281169bdcf03f25c11d4bed
p1156
aVcf8edfc7eedab096444b7ea0ad235b94
p1157
aV0b6e87b377c03acea0636c04d85312cc
p1158
aVf648dea2afae90ef20fc90ad216b7c38
p1159
aVe1d4d4cfbe789bec2a25ae9cd8be4512
p1160
aV6704d6bdcaa4739c5019ed2e9b7d50da
p1161
aVd8593b2e4ed6ce6ae7824a3300257139
p1162
aVcc8619fe1479ebf52a412eac72546356
p1163
aV9889ffa41246feeeb87388c629cf9199
p1164
aV7e089fad8ae0e3098491428bf50896ba
p1165
aV4d27483ff2bfc74dba963439ca6663eb
p1166
aVf9afdc600114860e70800039a227be59
p1167
aVa67b05544848b7e6158aea3ff045bb82
p1168
aV4d1765cb2131ef6520dcec17b496a247
p1169
aVff93b2d3d437b14cd779999a203ce765
p1170
aV49be6459bb5f9d53cb6bf27a8b544988
p1171
aV71696b13f9d5b4955696ee9a95628d25
p1172
aV34d8343789d239ac1bdbb6a3a8025b9d
p1173
aVc9778cdb973046df55f4010172fb0b40
p1174
aVdefae5af21dfbacbf0a8be824ba3de83
p1175
aVc33727628e830876e169a87aa4f72a31
p1176
aV4e899b5499c63ac2b3b2f2e384e16081
p1177
aV00ac5555e48a8d72138c7d15ce319cae
p1178
aVa94b5e65cab32366718a7aa986714b67
p1179
aVd9f34c8a1044419222c8995c58e3a2a2
p1180
aVda779839c3431466715aa43c00feb01e
p1181
aVef8f8acac44da3f2788dfe792e28c4fb
p1182
aV564530c9b25954eaa3efd37de089a4f4
p1183
aV59bebebbb83229e5d81e60f613d54a70
p1184
aV304a27075047cc09d3fc850c8778f9bb
p1185
aVaa1f229c9ebdc44c89c7c0b5abeabb91
p1186
aVa9b92e4a5ae18c0d13e6b1aa89280fb4
p1187
aV45c10e4c4101237989ffed615d0dde25
p1188
aVc49f9619b5998283abf897e5d63cc648
p1189
aV834e144b080c03c83710f370e9375693
p1190
aVf4795d32a28a2fc72eef9d0ba3dd14db
p1191
aV40e78ee9c97348364d9481e8df6d1326
p1192
aV09df1d935dc19a4f94697e975411680e
p1193
aV35f875bf25a8b2c1a471029fd57ea75c
p1194
aV3371e5357b1ce428a8092fe5986cfd29
p1195
aVb28af6156ef11c7a4b7c856af84e2d19
p1196
aVec962076e62564b99e6638f3a5969fc1
p1197
aVefae6b323e25e5954e486abc4bf15ae8
p1198
aV5465627c2fb4fd153365f2c588ae78a0
p1199
aV3251787346193b83d3a5e7bd540a6971
p1200
aVad44aa5c77dcc12ec7e908e96a8c5ca3
p1201
aVed361a8524f3b9dc54e00d34c713e2da
p1202
aV11242f1de86fd21523e5e8cdd5ce0d82
p1203
aV4f1e2b603359ec63c9bc69d0532927d8
p1204
aVd68f8e718c7c48880aff96d97056010e
p1205
aV446a426c4f5a3d33998923f7fb85f939
p1206
aV6c64e69941fcc5bdf6bcffa44e7171da
p1207
aV1444b3f68896dc1851068c395b0d0aa6
p1208
aV6760c16f6a911a9a434d7e868b41209c
p1209
aV64389bf72b2c6074a83d5e23f99928e4
p1210
aVc5233c25dac583c9ffadf2c07d70eddb
p1211
aVeed351e03d3d743f378e9fba26caf6fb
p1212
aVff0ceeeeb7c448016bcee1bc64d07cd9
p1213
aV28566971e0dc8102b49c982d863311f9
p1214
aVad23535684473c0b9e037edfca1f88ae
p1215
aV269531a5329479a9f3b40f3419ce27ef
p1216
aV74a66098dfaaa415bca214004a6fede0
p1217
aV5e2807139ca766d6a6153b1831d68996
p1218
aV72684f4664a50f0a1c21b0c06bea6cd3
p1219
aV94006f61266a24ad08eab0a6b5390cfa
p1220
aV200dd80f374a5d9f71048320939c106c
p1221
aV1ce9f4ad8e5d4ca650c1035b77aa47d1
p1222
aV99609699443a449dee71fc7414783347
p1223
aV322bf7791186c2972d564a4fe8e60654
p1224
aVe056d2265d505f9815c226b2a06e8c48
p1225
aV5aeb115d394b7e91abe9923fab05f497
p1226
aV1241ce625b773c62546da0c5e48364f3
p1227
aV6bd6afa75abd7671d083789ff1d5d8b2
p1228
aV6e10f37aa2d065806389574f0ee39fa8
p1229
aV979896675393a0274ed0231e759aefe1
p1230
aVd07f1ac603aeb35927331e4443fa10c7
p1231
aV8909256ed6e5421be87dc2336cfef748
p1232
aV5b7a844e04bdae32ec0ae02cb3afe8c5
p1233
aV6a5ce3b134ba0b4517048ebf4ffd3a6c
p1234
aV35a82190d3b5763713278539f4055e63
p1235
aVbf66a9fc60d6f499591093dba1516b0c
p1236
aV3bdccab7799d1d851484f165e43c164f
p1237
aV0d831c06f94c7f7b0c7df3ffc7c0b704
p1238
aV77cd5a8290cfc4690e46da5a854bcc4f
p1239
aV106edd26217190ddfdd8a5aba59d4775
p1240
aV203bed86debb6bf397c312b291860e78
p1241
aV1aea1085fde841c8b772768614bd4d25
p1242
aV09476acfc1b1bb9bb9c06d3eb5e559a5
p1243
aV9dd5bc993519b0ed9bd224e4f0bd2303
p1244
aVdbb85152e77d62ae9fe6fd6ece195a99
p1245
aV362855d7daf29acf8a55c57dc65db841
p1246
aVbbdb4e8c00b7217f6c3b30cc5eb007eb
p1247
aVc397a84ec3e44d30defe022aed054273
p1248
aV505eb36e5ef063f851a20d306da539ac
p1249
aV11d8543156279c0628987d73fde74666
p1250
aV3b55df56e829829677de5fc9aea4bb89
p1251
aVacaf8e84961fe58b031b626d92434721
p1252
aV524b8e7edf6d5b2e04b45bb45bed5b51
p1253
aVcd2cd55b871a6c377564a6a7a0dea4a1
p1254
aV567903ba49e5067203b484ab146dbd3d
p1255
aV9b5e833332fa926c6ca34cac42c0dea7
p1256
aVac6283bd519119356ab4a6a95479e8f0
p1257
aV5a1d6f19cabcd89fcd95502d2eb08af2
p1258
aV59ec38d70b3a7bf447fac60fba9550bc
p1259
aV19f1e7ac4542b2c53ef8e37e0915167a
p1260
aV61d195052d6f0b059752545f7353d11c
p1261
aVaecce66570dfba20d934d83e76c6d4c4
p1262
aVff236794780ef9d9663054fc2d0e1d73
p1263
aV7c8c4d914bdb56649acf089ad3c1db59
p1264
aV35a346ec9fec6c15e0a7da3d30f01b98
p1265
aVdbd38ba371feaf9305da0356649d346b
p1266
aVfaea151ec59526af1bacf2f90d72f343
p1267
aVdd8d43ecac281f011216a13efbd656aa
p1268
aV80b166d178d1196aba1022fdb6872568
p1269
aV702886dbc1a57c611eae0d8e8ca9bcae
p1270
aV70cac92b8e271cde60f1907f9773d168
p1271
aVfaaceab99735abac902fb7804d417f22
p1272
aVf36fc2cb60f580416b591383523fe371
p1273
aV648ef2b9c214aa18ed0e795292107ce6
p1274
aV2b600bc647edef9095d9ce8245e9d757
p1275
aV77a8fe3d6e5ccfb90b1fbaa6bb5de0f1
p1276
aVefc36d7ffc7c8cef3a5565cc3b3684c5
p1277
aV83f7356eb9dd4a55a20106e7e644fea4
p1278
aVbf985b6e4f02d67eccffc4268e6fe525
p1279
aV6e961fb17e493a25c89cdb3bd1b8e442
p1280
aV2c69d629d77ab68dfcb49af4f30a3d05
p1281
aVf895c281808603351352ff55b1cad1e0
p1282
aV12f587604432fa53c8b38ecccef44587
p1283
aV9a5093d1bb3046ab273f91ea6fbba9f6
p1284
aVc8dc54ecea8e6993d3197fced0e82de2
p1285
aV27fb1d49994db2ca5d143831453b1c70
p1286
aV8700e24ad92b01c216c9328730457622
p1287
aVc5b2f9b1a8b2768fd95450af5775a405
p1288
aV8c526b13fbc918058acc578352fe9356
p1289
aVa94ca878834ad3af82fd7c9f5616a7e1
p1290
aVcbd40082b37d24a265829349934e67a4
p1291
aV96aae8160946d04b834ea2c0b400a947
p1292
aVe16a5d37550623c4313e0f5ef0f48901
p1293
aV037ea982119005da842fd8e3d53dd98a
p1294
aV14219f545ad6bdd1e54a03ffaf75c4df
p1295
aV75632414668de80e33958e80825e050d
p1296
aV96195db99d96aa4cf45de22d00be8bb6
p1297
aVc46b883fc4a2a2a3b07eb2107fd6cb3a
p1298
aV4f7284ade49fa023164e93f2aa5b01ff
p1299
aVf1236890a99f6693fb7f2cccda6bcd1e
p1300
aV163edd5f18ea265cc73318c98badf9dd
p1301
aV288651130a33d26449ccf79054343857
p1302
aV5483fd8884773b84fafb30f721bef107
p1303
aV7fd005972ace5522723be0d073a071b1
p1304
aV6776ad5716b95935ffd08d22a4ae06ab
p1305
aVa44b1cf4a2a2e5179001297217eabf5f
p1306
aVfcbfc73052d7fc9373d9b3e4dd52e30b
p1307
aV7183a37f6bea49e4f6c53b4b6a67baac
p1308
aV0accab38d7288958b0eb29f7fa53b7f0
p1309
aVf3e3e0bf8b3eb82428ca8dde449ed2c7
p1310
aV1a0a5e699e4fd50f712e1725aa21561b
p1311
aV356e3a2daef5cd15c15e8f787b5a2f1c
p1312
aVc5c3009bd6e473ca66c34e65400d0695
p1313
aVffeba6b4e34020df945a05e55f27ac9f
p1314
aV18d3097428b6209c9a36122132b42d76
p1315
aV38798cde087ed8a0c65f6535dfc6ac99
p1316
aV4292f3233f750279b9786cc475592a8b
p1317
aV1b2eab8164cdebf226d95b33753d3f9e
p1318
aV6b11b7548e03d7343f79715e9db8cc46
p1319
aVc6c0878d4b20fc56ae60b2453e7be70c
p1320
aVe13fc5efea8dbdca5648fe5fc74c5e38
p1321
aVd3d5ac24a3a7fb167729532cd16e4e69
p1322
aV6efc330c64f9e64bfa7a308cc8c2cdae
p1323
aV196a0e1ab839ed4fc7c98949bd288818
p1324
aVf82cc0f8fedd6bc8f4cbd7b9df6603a8
p1325
aV8795445e407b1356caf43c1daa41435c
p1326
aV817df006ba66fe0529fca97eb3cdf99e
p1327
aV6db51bb3897c787e19b0e448231124d4
p1328
aV13082db4d14cddf2838b07f74ceec46b
p1329
aVe3a011bd3cf04a6e0b0e83b007aafcff
p1330
aVb4cf03b3cdb5cde998e56185bcd59c48
p1331
aVaf4aef22f45e729a3467abe35782c332
p1332
aVf99ab4ed2f84feb535ec13d379b13c01
p1333
aV6d241eef12b426c13a9a0edad02e0687
p1334
aV8a14503f9b2b0cd06a221c0dce71afb2
p1335
aV0961e877bf61e3a007240dada88de216
p1336
aV089d0d7c1deea4bfe16d755f08e65f9e
p1337
aVfcc5cce95982dc7db650395db43e08f1
p1338
aV5850b6d1d90210e7b054c155def3a54f
p1339
aV63bf42f52a08799b21b5038e4a57e759
p1340
aVacd340fd0dec5541240beaa6d5841f0c
p1341
aVe979f1e7ce29d1abd59cd7c8f73216a4
p1342
aV505e8cd946b2e8d3b6615711071e76d4
p1343
aVb1207db967ccf33e0d6032d0dfa684cc
p1344
aV5a09f624a1f7d561ec36971fe2fe8a85
p1345
aVa543d41bccf74f452efd05beebd97300
p1346
aV3ac88887878448fe1f32ade626acd532
p1347
aV59f65ea1e4d3a349e59fcd664d48607f
p1348
aV39ca79b3eea153bc0d949725acc12c52
p1349
aV1648b603ea4e17867ea4e4a04181808e
p1350
aV99dddc5f447eba488c215681a28a4ee1
p1351
aV1067a02f91967b573bb1361122b29ee8
p1352
aVcbfc33b224917b98b1ea9be873113dca
p1353
aV6aba0390cec0ae595be5510c080d47fa
p1354
aVa691a311c511ec4858e22d028addb183
p1355
aV39874b70a700527c3dc29a1e546d8952
p1356
aV4f953b64d2c3e17def7b2f9e536aafa4
p1357
aV0cfec2adfe908155fb58473e3d14db68
p1358
aVa41aec788f9d746d03c56c12da946f65
p1359
aVea2b3590d0eb2de839ed3cff995c3441
p1360
aVd84ad2703865d87217da43b0c30cc973
p1361
aV53c9512b6f29e22b61b0206ced7686bd
p1362
aV6717560ef2340de60f440e699de079b7
p1363
aV18b7a75b673ac50b9e242d0d33440681
p1364
aV6c1c1d881d050ea49349277f97f8972a
p1365
aV1a5d11322ec3ab5948f833458bf29c22
p1366
aVd5378600ac6383594e7e2f38f64e59cf
p1367
aVa6c5a853e92a0362dd046e780a3b72a1
p1368
aV1e3048ff5935dda56a8840012c6a6f52
p1369
aV076167c2460b53dbe739cd306af2e6b2
p1370
aVbc381700e3685f85fa062a2c19c4fdc9
p1371
aVd89acd4a89b4884688f3b3c8b8eb3a55
p1372
aVfff6ba70c3535752dc4fc98ebbc7633f
p1373
aV5180f999891dcb059ac218d749fecb7e
p1374
aV34df66742014942270b0f5afec1a69b4
p1375
aV9d1daf5d531ad8a3c5616fcba9e13f5e
p1376
aV86b902d7d85105535acc89cf2eac487e
p1377
aV887f8a60f26d61c0326d7b10b0605064
p1378
aV31599b4bd62a8a8090a2e845ec39117a
p1379
aV8ed550eb59221dac58a136929233d573
p1380
aV83d1469365f9a33c08fb7996a1705b8d
p1381
aVa0bb2873a57b0910907435cd27d8bd77
p1382
aV04447b92492ba7a9727fda5c6418af86
p1383
aVef604b132afafa5d213d311cbe298a2c
p1384
aV49eed7b9e6dfdd20414b3fe2c80c39ca
p1385
aVfc43f0b5b5c1f247183c941188ee55a4
p1386
aVff8ca533725f01c7057a34d57a7bfed4
p1387
aV01a4346f735c6440ca65b9b5861e8ca9
p1388
aV991cab1392bbcb706291515f324e3d10
p1389
aV8bdd4ae42b9aea171771b3b7708753a3
p1390
aV8eab694fb7f2c4f80d6469808b5d88fe
p1391
aV00b5805fdac3694a157d85ed867ac41f
p1392
aV6545d66bdbd87536cce0d00dc0cc7018
p1393
aV2deb9f962f9558a220a43e02426da696
p1394
aV3d73ae9c7b2c72213bbf70cf3aaa18d8
p1395
aV47180ea5f9cf7d7a56482afd8e6b88e0
p1396
aV196859a60592a270f346e420e4212c51
p1397
aV185f13fb51d6b8e769940faa8d33da1e
p1398
aV860c094724cb29651edce983d91a86fb
p1399
aV36fa4c6356b2809d9dc13ea67040b026
p1400
aV238095de76161e7eac7793a01cb69cbc
p1401
aVa962b791036cb2eb4407922e703032e6
p1402
aV88526a91c9c071ecd575d5f66d099611
p1403
aV0226ab622b2dc7bddb9de80b4cdddeab
p1404
aVa20aa1a1df171b88c9082cfd746b51f1
p1405
aVbebfb89b8c1283bcd2ea42ecf5bb1f78
p1406
aV9a3ea7ad7c42498c7ef0d8265d83b4c3
p1407
aV8fbea4be1d6b76bb561ae505003c1be0
p1408
aV70aeeb7a5589180940649cdac6628b00
p1409
aVa3130915a48fa59852246c7db032035c
p1410
aV283e11cf29bd7c6658c09aeeeaaa360d
p1411
aV691938e11ac3f3779471e0855319188f
p1412
aV0a5754f32fd3a92992a538d937ed15b2
p1413
aVc216924b3976c7f142a71c419ba83088
p1414
aVa6269aa243a33f30a4f7c6d1c7c757ff
p1415
aV0eb3bd0f86044101e98aafc82f2c262c
p1416
aVce5794751241bd033fe342b609e41c87
p1417
aVc2f1a8bb5dd0d8b6492ee3548e6d16bf
p1418
aVc9a3767b98e235daa81aa53e493baa6c
p1419
aV5b5271ca0a464a9ce357da9a8b1c9172
p1420
aV29a1a30739ec0235e666781b43208e9a
p1421
aV5fa385b76f5eb4da3e8feac5d6bfbad5
p1422
aV763c52fa085c6dee8951960eba2c2e93
p1423
aV49ecf735451bc0d96b99dc04f6e3c909
p1424
aV6fdbebfc41406ffe2da87cd8bd72361b
p1425
aVab87937a7c2b94cb6a3a6ea6ae9b1e51
p1426
aVcabbe651dbb632657a2d445c7946c50f
p1427
aV5628310ab73b01ba2d639d7e66cd32f7
p1428
aV2f775a9e3a04941965cac7099dcf7567
p1429
aVf4cc6d10f0812b83d7854c7d5a8682a9
p1430
aV9e16f2279ad1fd41f017e6b477955917
p1431
aVe71d7002b5d0db9af3b78d4f9a9fb5cc
p1432
aV7fb1501d08d5cb994868cc188b8001ad
p1433
aVb81ecdb02e0340538f97b52eb0187dab
p1434
aVcd8e33b817fedd5fd1f294723f8b0a06
p1435
aVa93b42a2ec05d0a6efb8c4306985b84e
p1436
aVf6b99d51c41a9eff0e6e53a59e9ce9ab
p1437
aV805702a4a7037e121adc1b9243cef7e6
p1438
aV6465e08150742b14e57c3c4296059aae
p1439
aVf9a94a4092936473ecb377caf26509d9
p1440
aV066fd5c5ccc12777828279f82ca7758e
p1441
aV8c4c9c906ee7ad4f879376cd475be988
p1442
aV417e3464652923881cab104e84de0155
p1443
aV35f4c8ec622529aee8b4d474f03dfc76
p1444
aV1fba6215bb9004e6ad62c470f3cd84ed
p1445
aV75ebaf41d88e0c5afc1fe83b89df7895
p1446
aV37189410f8f2968ae4ec39819a7eaf39
p1447
aVbcfbeff7adf65d6fedc5f4cde105eebc
p1448
aVc1904ded4486114d518615caf3d39f9b
p1449
aV5f9f32a4ca810eeac4eb528a6946af7f
p1450
aV8d7fe77bbdeb52dc305a9078578350b8
p1451
aV398e03472f5023c46360be8f7b5fbee5
p1452
aV88f08d5312477c5a60275b6b26c77b11
p1453
aV9573f9d167ab4216dcdaaeacc3425c38
p1454
aVf20d9a83288d14397074a9c7ca65f419
p1455
aVdd9129a00bb41a2890e6d47b10524118
p1456
aVe64e95b9d2403de738a26a576e95ba21
p1457
aV7cc832cc246babe227711a9f0fdc7a35
p1458
aV008663722f5ba7ccda1d00cbdf501bb2
p1459
aV112d9fda8cf76c25b84d4921119ed89a
p1460
aV963b0c513f20e4a1739a1c29394ab64b
p1461
aV6fbaff21827de07759e04a348b9ab9b4
p1462
aVb7f184a926ea9b5ce189ad9bb9de983b
p1463
aV74fce208b0e01d38b47fe7ffb4d99482
p1464
aV1dda7a1ce93ecbb6c4c6bbb7b72b7454
p1465
aV46133ab3bae3f9242eec27cf63de1025
p1466
aVb35178d4771fc7b806b4c533bfc781e2
p1467
aV7010b7abd3262e70da37d47fe5826b25
p1468
aV18ac934ab79703786caecb408b17dab2
p1469
aV4be1ab2124d5ee0fe811051d616e1efe
p1470
aVde1e2dd130a0a9dab40ce884b72ce53a
p1471
aV8dd990150f27e95f29583968c5766bae
p1472
aVe858ba222556d6ae0e9888d5bcf5e6c8
p1473
aVa3eca91512c0028aa31492a9c18f21a4
p1474
aVc4ea2e3ceed1c84c70d55e9e92fe706c
p1475
aV8173d20c8bf407d9d23a0025df2ef38a
p1476
aVfb3232007ecfc00d7e5298ade3f1947c
p1477
aV1d5b5330191e7d8f360196e5acce6170
p1478
aV8886ae2f9d54268a3b9942e23676ea26
p1479
aVbdb6b54b967f0abcd4159314840ccc3b
p1480
aVe023c06ef28573290d232bbb3170ac90
p1481
aVfe2eeb2043eb03741aeb77230a7d2193
p1482
aVbb86a2dc62af94af35cfb9f20293ba94
p1483
aV1dc15c9cf935cd11b481a857f5f7adca
p1484
aVf21a26528eb1ebb4622bf5224240dda5
p1485
aVb40003f38a30ceaf4134417ea3c877dd
p1486
aVc0b63df1cde207b70f4c7a992617a81e
p1487
aV38116616aaeb724ad5528feb92325fcb
p1488
aVc4b209c1a8de1a18473410200796b065
p1489
aVef4fe1b64fd09f8883622e630341210a
p1490
aVeabc6085a6fb88320f372d795e7a2080
p1491
aVbb2a95fa2268cb9a3a8da40eba8fd26e
p1492
aV31937c5ee1d8bd617a40e416dc5e2f21
p1493
aV784854a1bcf19348e0da2eb48e0a614f
p1494
aV2f24acfa977448c79f1a77a842d8aacc
p1495
aV0b8ef49e385112bfa962369ffe02fa53
p1496
aV4c9a59e5227509156182697b9b8c2182
p1497
aV88b4b319f8f76743ecd8c2aa7e9336ed
p1498
aV9d388fce7df7e1282449e103a42986e4
p1499
aVfb93a31bba94bb0100051e34c7e581df
p1500
aV7be085bb77eb17500c24c0de2aa25a83
p1501
aV17cf7619157abcd29b8a5815d5883057
p1502
aVfd9f58685450567ce4479b0328e8b4d2
p1503
aV8ed446bd6b8e2198fff05e63e1fa72c3
p1504
aV5ba2e65ed5a798a21a3167e634f61f5c
p1505
aVaf3570bd76d724ac7e2317b2fdaf04f0
p1506
aVfdc1173ea84b061332fa0ea7951059ec
p1507
aVf2283774a7ea0e1af0bdc18720303449
p1508
aV1d3e385ad01932a57bd64394a520d52d
p1509
aV68b845fb7cda49dc452541287291cb84
p1510
aV329da2cd3c40d290b780b252fd493be7
p1511
aVf19465a9ff21068f510c7ab3233d300c
p1512
aV6a1efe960e3abcd379438ddf3ad90fe8
p1513
aV6e69b7a0149ad184ebfef5fb174986db
p1514
aV00ae46b04fd58c7ed0961f46800e5724
p1515
aV88e6743cd932ee57fc148bd30b86b16b
p1516
aVeb1d083e625ed37f555dfeb7bd1bc621
p1517
aV9fcbc65901e0682f9414e25bd491ddf8
p1518
aVf7af4c20a5bdee1499ff6290cd219a4b
p1519
aVa790dfe52c46f34e90bd16a4df3ad6f4
p1520
aV83fda324c1d770720c800a282a3a2ffd
p1521
aV7a2e9f1f698c82d73f48d4b9a033df67
p1522
aV7e0d34fd718f1773aa171307bd8c5f29
p1523
aV17cb0500a1cdd7febf78ba0387803c18
p1524
aV11762c7bfe3d93393b90848b19403e3a
p1525
aVca12ed9cc87cd9490267f155de553d42
p1526
aV8946936b241e9b08ec09370415dedcdd
p1527
aV5c32e54d854c2f6c2f0469b5ec5c1ea0
p1528
aVdc97a387fe539520199a24ae5f9271f8
p1529
aV07bf1c594fe501380438943f4a63778d
p1530
aV17a475e67f085b70a50e8493c91c6aeb
p1531
aV8a675de0b0bd7722d0397345a726c504
p1532
aV517cbbb3039a4c5d2e1676eca8b2fe3d
p1533
aV2c79999d1f13284f566789553ebc15ac
p1534
aVd4366f3cbdb960fdb2d92232e2c0fb6b
p1535
aVca4d20c34d1d0f414f862bd497811444
p1536
aVd373b6c9673343d59deb91f55cf645b7
p1537
aVda3881e8287b0191af874716d9a617e3
p1538
aVa167ca8f2f41713eae13b2ece6996526
p1539
aVa864cf61e3e96b682963423528bcdd54
p1540
aVd5b8b1f48b17f803fb8704127ccd7adf
p1541
aV955c31c3aa6878845ee9a0471db0c838
p1542
aV3c706d48a0299de1da1a6e107b53776b
p1543
aV5e2271268c1ce670d0cd01583230491e
p1544
aV5908d643431b603d48ef5e646cbf50f6
p1545
aVef0e98f1d6c90cd761281f0b7f637809
p1546
aV33b8f614517f0ab9591a2f43910198ce
p1547
aV001ea67b85b81881c2a47cbfcfd75f03
p1548
aV3e28e56569cb80a72e2a3be611ec1ce7
p1549
aV4ca15e0c0b4bbe184dd8099319158eff
p1550
aVd428ba1b8a7d5bb6d68ad7336f18a2d1
p1551
aVa45b1ffa641a944f839af3d73d9a8f32
p1552
aV5a1377459aeee783765373e6e1bb19ba
p1553
aV4ab034f6122bbc9b9df5e5a8bcbef444
p1554
aVd8746da045402f2dfaab3cc24c7f4b58
p1555
aV0f843ef508e19583dd635ea57f94d72a
p1556
aVbfc322eca76adf6eb5f659005842ae78
p1557
aV8512a744d9617e32e2c6557861a1a8ac
p1558
aVf03c00c89ca87f5e7024cfb7a39eb55c
p1559
aVfa1199e7c20f8e6e1b8f9579b324e902
p1560
aV652c3598f5ae9f862546e7a53f052d2c
p1561
aV28ff9d6b50261ac1cfecd7e342bb4e93
p1562
aVef8f1393e203bdb1b26b9f32182fe802
p1563
aVd08aeb3acc599f72ee774e67b7e44960
p1564
aV949c8459d89ecbcc08af5cb418ca4536
p1565
aVdfbaf91284c6046ff91a1b701c5a4f10
p1566
aVf295a3bf938b8e92997e936db2d1336a
p1567
aVcbc8307178d5aef08ac31cf59230537d
p1568
aV88927e1bc10afbb5be41a094ea571263
p1569
aV3bc11f6d08be61eaa415436c9a34fd6a
p1570
aVc980d18d96e3d525c02514a707f74fb5
p1571
aVe01307dfd90146b584dbd689e18c6bba
p1572
aV8544e790991c28365a33d51e4a5d3e23
p1573
aV5478c1dc9dff3f5248e8bd6029140270
p1574
aV42891ec58031381f0511f62d394fe0f7
p1575
aV80c3eecc370f6551817e033f3661d144
p1576
aV510e7fd2d755fa52ab700c33b71a0e85
p1577
aVe7e2368ae50395e0c201c82b5199695b
p1578
aVf91bbdf91e75fd99fd72720d2c51f072
p1579
aV70018170aaebe0e5c652235549b670a8
p1580
aVda928fd20c2ae576b69d901eeccd72b2
p1581
aV049877d5c30b3a59d36971aa96524640
p1582
aV88bdeb0a9ae48be4ce5f3bc4b9098cb5
p1583
aVc10ff9dc569ed590fc92925585ce013b
p1584
aVb28731ab99238c1a20b28a63dca384a5
p1585
aV00d838aba88b3316907d572e29714e4e
p1586
aVd633b19cae2e32ef14425fa0afb36c98
p1587
aVfa6afe98dc6c47df8722f7b9f0d7eeba
p1588
aV94015b52e908562aece39a43eb28b3d9
p1589
aV75b42c523fd8e34ade1c1c2c0210c432
p1590
aV2ed78d6fe5825ed1d48a75dd8b980d3d
p1591
aV5e7b1eae018417757ec8e380fa1c858d
p1592
aV5d7a1e79a31f11d0c2ef3c823fd75b52
p1593
aVe023eaf673d9eca3c10173a6e4d98407
p1594
aVf3fd9a0c37b6544e4f6fecc751231f9e
p1595
aVa754552fea23a9a79d586728d38bf311
p1596
aVedf5fa71aa4ade1e6f1bd400981e05ab
p1597
aV23e0ee9ef74be0ce4539b85cce8b5306
p1598
aVba3b5d9e8c08cfc5851bb0197f9cd5d1
p1599
aV5dbc266feef0f116047d75fa8e3ae42a
p1600
aV60ad02797b2a86a4815e02a1a38cc153
p1601
aV5fbef05212010bd25b8658873622d023
p1602
aVf427fb9b8364beedf2bec251a144cb36
p1603
aV01ce2625bde732674d54982a3b016340
p1604
aVef306e224460bb746f74593d9a4e8618
p1605
aV106dd47cddde2530dd5d6e2bbb68726e
p1606
aV59104d22e1b1707b24fc30e29977d822
p1607
aV2adb4eb400786dd845492caa70cbb244
p1608
aV87b195170f6e1442ae1c0c9869401c3c
p1609
aVb9acb98dc1ee47ec93589f9c9bab1f8b
p1610
aV2d52d2fdf5535f5fd7f560bf9b95f73c
p1611
aVda1b058d9ad7f83a1a3465f1601e1c28
p1612
aV0abba8fa65d4c69f9f5d01bfbd15ec4d
p1613
aVf484c84a0a75dc1cc0d47d10a83fef59
p1614
aV8758a5f05b37d5046a6637d742403954
p1615
aVf5307bae7d8d2778802aac5d080578e3
p1616
aV7318e6df3d3915241154e11ae546fe35
p1617
aV4b21b4d6f0857c54e0111fec7968fc36
p1618
aVe0fd09afab503fd8c66fcb1023025bfb
p1619
aV29f119d25531457408fb1a2d3fb90a22
p1620
aV02e27ed4b1bbcc049033d823a5ada804
p1621
aVb6a0063ded68eb74a9cb941182de56a1
p1622
aVdfadccf5bd1fe50be3623e21ce922277
p1623
aVa87f8f903cb60c2bdf3d00983fc34df1
p1624
aV68bfc0da121616196ea239deb938501c
p1625
aV5598bd3cfa7db47e79fd1a51d5d398dd
p1626
aV0303e416c5f2d7caba9e0899fcadeabe
p1627
aVe3ba94638e05ecf1c7049330145bc8f9
p1628
aV402cd2bed136ed84c380a47ee16f1d3b
p1629
aV421d7ba4a08c4ba619bcf3c5c9165411
p1630
aVfb62403e8c85b061222f7843be2c541f
p1631
aVed4b04976386c29a233579b05192305f
p1632
aVfdd6a8b3788b547b74ad963261b73a2e
p1633
aV8bc278839874756b4f01b6d121e7904f
p1634
aVa2dcf0b92b780700da2f6180d5fbcc12
p1635
aV8d1ecd47319353d902a5f3db37e21d33
p1636
aVbdb4652ef4e8bd546129fd367131544c
p1637
aV67d0ce0b2bbc7619fbf318ae456df3fd
p1638
aV481d0ae86a42ae4eed67db1c1688f974
p1639
aV368167f8ea7f8f5829c7217005f1afae
p1640
aVecae28a8d184069184b84b6f4a1b8b8d
p1641
aV7cf0acdfe4d0951c2cb5f5b476f40c8b
p1642
aV63b6db1f0eb4d89aaec34cb60bc840c7
p1643
aV9974229ddd7062649eecd28f680103fa
p1644
aV219bf4127de60cc346307cab0b404e46
p1645
aVcc09758d5cd143ae1faee4c0b1da7be1
p1646
aV5782848e1bd2dd64c5e25a30051cbbed
p1647
aVd91518afd901ed5bc1e9191c91c76658
p1648
aVdd68fda758fc7b5cbb84bf007beca9fb
p1649
aV6a0377f1fe8a901fca7d057eafdc3f86
p1650
aV0d24cea2f750eee54eca6034ea2bf570
p1651
aVa8ae59f2fd65e375aab6c267b9160c50
p1652
aV814c70c4adfd74c99de4c02736e324a5
p1653
aVd30fe8b3bdf4efa65255e489670ba268
p1654
aV89ade36199d967e715fbc95c61142fa6
p1655
aV60ae5855b23b9c9f06a0a646d792cdbf
p1656
aV3f9f42ed020ccd2128f6a22e251d271f
p1657
aV9669b62be6e67a1f6a8a1257b1a6da89
p1658
aV6eae92b89b4d2bb1da0b55780e3e483e
p1659
aV0e1150f951ecbfc64dae1285475d6730
p1660
aV9b5f6ec33d269afe48784919e1ce78e5
p1661
aVf948d957681c02cb5f4ac332ce876c16
p1662
aV7f1e824ec0220d13f19c992995972431
p1663
aVa8fb3c9bc654c84c586b53a60dc08223
p1664
aV230f10667cf4f75e2da11a100a75f900
p1665
aVb72053241230730997c017c187b5eb44
p1666
aV00d85d8bfbfdac7c5fe24372dd428e67
p1667
aV47b8578c16b243ab721f65d05c0dcace
p1668
aV4bce85e6c90943f0d27453fdfa908184
p1669
aVa403d3c17fa80008c548336f8240db49
p1670
aV324e30f427278c1c11e4ae4e510ab412
p1671
aV034f0deff805d7ff89a36d364332094c
p1672
aV146efb3ea6137fc768d1d448be28fe42
p1673
aVc67d0431bd61185ee0d1898d4ff2ffdd
p1674
aV9f6a2f8048a3ed9662229095ce75ce2c
p1675
aVb9b94465d5fff310df078814c8136b12
p1676
aV4766628dd6a542b70a00a20332d02c3b
p1677
aVa77459107f94c5bbe6754f629bd23f48
p1678
aVf2023c14c78ef2dcd55ab5a3364f399d
p1679
aVae25a15bd7f93e639af5223a49018e5d
p1680
aVb124366e7516795eb85345e72ee68d22
p1681
aV5dc80f9a197d57aa466d4bd4d35660af
p1682
aVa030c1369f9c34001406ea0235cf8b4a
p1683
aV7e0620d0e8d0c7f2dc0b107cab942bd0
p1684
aVc04bf79978969bb930fef615bd90a8e3
p1685
aV16a658f3e80d7139e9c78aaee1b4ff79
p1686
aV4276148fdaf3574695915faf3dd66c4d
p1687
aV2c65f75797f9e80dcaf6638b98b93497
p1688
aV12d33689a81ca5d7c43c134b7330a889
p1689
aV89cbc267a88142196b2b894a5ad55637
p1690
aV782c8e47d49f6762d1c38ac16b24c7fc
p1691
aV23185183ded7586f6f5489a42f299bab
p1692
aV5d7e3c9d521a264a9422abab33fd1809
p1693
aVd689e289a427f4427b46a2141af435c1
p1694
aV277e184cb4fd54080e88158723024233
p1695
aV9170f711e55d0ff18fd17aeab8e3747e
p1696
aVa59598526150a2b921ba0616eacece77
p1697
aV9a681e307f3094f598c7933de4786374
p1698
aV1f3043c62d6989a69997058f188823a9
p1699
aV75845b3d7852ea44476caf5718853462
p1700
aV912f58c4785e0cf40c96884929598a54
p1701
aV2c28b5f5e4cc409c1771f0b5a3eb76c3
p1702
aVaf3fc2a6cb1589b249818d6ec9841a67
p1703
aV4a09d5c633563526e7a449fddb364b4b
p1704
aV609d7186ac4f95aeca6fc44cb5a3f0c5
p1705
aVd22e42a156f2e5f83b32618a14f4ce66
p1706
aV891e7a086d85c01cb511fec565d0097d
p1707
aVa300e536d82445ba16ffb7b13a6397f4
p1708
aVcdfc1450cb19b455ad04b41c1b8c1412
p1709
aV5eed2577912041f9f0c342fed896d000
p1710
aV254d528924ed07974d6ae04c37de10e4
p1711
aVb20b7861459c871aaffb70de9a5404b5
p1712
aV484932bb6598c4f19fa89c123110d3e8
p1713
aV83658b208e73611bab8909c6623d9263
p1714
aV5c94caa595c10b28768b84ac384d17a4
p1715
aVaa8a342be98597dc67be2ef35749fe54
p1716
aV8ffa26bacdbeee046d2a2aa7c379ee53
p1717
aVdaed854351c0bb57492854bfb6752e8e
p1718
aV5f69ea8de437923b6d64236648f38b56
p1719
aVdd3240fe50f9c933a28ee1e53eca987a
p1720
aV13ad94dc64936bb3f7596bcf7314e3d1
p1721
aVa488d09c0dbda06e0428e80c4efbe76a
p1722
aV75ff7c0889d088a2dc32a069f2537224
p1723
aV8de64c52329caa0f66519f0fd35e8597
p1724
aV064f3d3862e2cb28e70bf001e7aa0d85
p1725
aVf74c2738d64bac5efa341371d353ce1f
p1726
aV75654f62cf0e755cf07df59e36e0fb2e
p1727
aV85ad5696c5b3f7f4ea31b5b072d4332f
p1728
aVd584ee50d9445b46ed6c591c841530d6
p1729
aVb3d0815d781125ed99ff6feff37c92c7
p1730
aV62698d7fb5531e34098627ec3ad89f56
p1731
aVa9d4a520b6391a9f2d2971dd2b135e34
p1732
aV4ec550e0ce48fdf7ad432cd4d999f811
p1733
aV7d484287a2626f4405e3ac3d5a133b84
p1734
aV5c41085bd118cf4d820ee00e775b8d38
p1735
aV6d5cfeafe5c1d8d32c8821143a273910
p1736
aV07b464888d2c9afdb2a6d84ad0b98db4
p1737
aVeae61ba7f1211ceb83408bc9ddc9e8b3
p1738
aVf4bae2f5190dde34e8684f44ec9dbd32
p1739
aV9ae273b3f480e221baf0b6a2eb7ccabd
p1740
aV3b74704d66e3c56a9a800a34881e42c1
p1741
aV7de6b7a84c0e5997bf7ea2c90185499e
p1742
aVcfdac238113ac410ec0c054f8470ad5a
p1743
aVc91ba731b65ecfb242efe258253d3d85
p1744
aVbcde22a505f65e42b1f7a39f0d69fe71
p1745
aVddb83119241ff1cfe74cfe88bc90b9b9
p1746
aV0e61e1a034865a632ea825fc4bc0f056
p1747
aV97034e53db217fb5a2ad29a03963f27d
p1748
aS'zhang-jia-wei'
p1749
aV9fb41681e8d4d5b2c58c6b6abaa8523b
p1750
aVcb50fa81266859f730e98ed3dca202a9
p1751
aVa3a1502de8797fc130f37c2af268cdec
p1752
aV33c089b8c2a6d47ba07387147996aa35
p1753
aVda28c07b836175ff09b540194b08f68f
p1754
aV0103e5452516d2112f69c69702be4b98
p1755
aVe55beba006c5225d750049c01c3b3425
p1756
aV1306cc6274e9a41886ca1274f5729541
p1757
aVe44cf4ff7e0d25b50b9b5baca0269de4
p1758
aV17c9f3fd131ebc5d40b3fc85d80a6a84
p1759
aV097a4fcae76f074b3ee09996ecf761fe
p1760
aV6dce491586a7a159c997b38873da3128
p1761
aVb07b5ac63afd2288c30042ed67ecd2a7
p1762
aV09a65cd4227da2d49d40275dfbb5baf0
p1763
aVa11ffa9733dc183fc37d1215099bcfa5
p1764
aV8914086f1d1af30d8f75ce6fedbfea47
p1765
aV206317b1bb26929d7f32b7d35e8a4167
p1766
aVac0f1a5a944c6a537ec90909b270ff74
p1767
aV536015a38b31c45069b381c10e3d07b6
p1768
aVc07b6890409344618656cc07150cd477
p1769
aV9c03e1202ea1ad8fe76f85486a3cf9be
p1770
aV90d4ae5dfc93d844339602f138c78bec
p1771
aVaed9556d273685ff2773c87f24fe1269
p1772
aV05bfc2ac5c202a9f9ad7865c0ae85274
p1773
aVfb08d31b1a06c6ce5c5b882797a7a5c6
p1774
aV074f9a71fc0777eaf08901cf826aafde
p1775
aV428f5e9aa960188e17b8354bc34a8172
p1776
aV95de99353b2eae3c7d6c74eca590e5a5
p1777
aV1707d8c8219a657cdc8cdaf8c3f8279c
p1778
aV81953d782b25c2e566f56574b9eff96a
p1779
aVd2cc1bd459a0400139e958d436fd0a21
p1780
aVef492e2365761701673f2d85b1bcb8e5
p1781
aV2b62eb7f0d298395a81f18d51ac2275b
p1782
aV185b34953707fb3172a93360362e0a0d
p1783
aV67f18710a03e08c4ac05cb794bef1d3c
p1784
aVf6a679f5b49266e472107ff8292625a7
p1785
aV813c3bf048c5660c5b6830d51812e9d6
p1786
aVf4015aafa3a9f0630b23ee14fc71674a
p1787
aV298b98097e60399eb486ed362d31374d
p1788
aV763c49a0b74e9e4fd07bc80b7ba4893d
p1789
aV7f7952fc056a08e7955132dbca7e3df2
p1790
aVde9566a453d0678961f151889d1977f1
p1791
aV89f832d7df0c652e3b139d25cd166fbd
p1792
aV291ffc381560319ce138751dd28bf901
p1793
aV0b534b7855e2508b71b58b755a579fad
p1794
aV48a4460a913e0ef98e6034d0e1d0b7ca
p1795
aV95d34ae293d0bca9873b3de17a73b619
p1796
aV09307a7162685c48bbac11cc9253fad7
p1797
aV56316e0f0b33240f829c317f1f91245e
p1798
aV6853d5b52e0329b90424317a40b41a9e
p1799
aV155deb6eb9d5c5abb75e73f16af526e3
p1800
aVdb947a034730243593719d5809d56a3c
p1801
aV360fab8d353e03366a9f4c6fed8879ee
p1802
aV06fd2a657d7e3e42f99e7a15f89c8848
p1803
aV2345a312fbfea9882fc999e7720bd371
p1804
aV50ab3d392e9886ee35e2652abbfb2cc6
p1805
aV5ad0b6a9f3e264a495a44ca934bed097
p1806
aV4b45508a25ad2ebdc7c107e0c593d7d7
p1807
aVcc50ae8389183e5810b45e42acb1fa21
p1808
aV169b090c1bbb0b37a23e209c83cfeebd
p1809
aV3b6372ad64ede3de7d8ded2d1147ec79
p1810
aVff4233ff889e448fd9136bd986052ace
p1811
aVc3c1e332bfb6bff9fd06ea4283d345a7
p1812
aV77f021df2378b2b877061093bcbf0e70
p1813
aV17378d41fa0e1df8218091eedcd048f8
p1814
aVe0e63eeb4b7c774bebf3f56bf838f227
p1815
aV8189d86451f302bb819e2998263a163d
p1816
aVcb0f7d8e8efb8aadb6c0ac838d548b3a
p1817
aV2e8f0faf60cabc2db77b3186908ee1f0
p1818
aVa26233c86ae25a85321c0c6780b7ec8d
p1819
aV09d2f6471d6ad952c2b59d068b7ca6c4
p1820
aV2b7cfd119856e92d64b11abc350cfe13
p1821
aV9ab6c75967e652045f8982d7da99b1d7
p1822
aV8dc4415f73f7ce4311eb2e33556a4a16
p1823
aVcbad752be7b93e049ef253489323cc25
p1824
aVe099d18e9c17b32a28e9bbf74c3de5f7
p1825
aV1d6e35dd9888f601ed3dfd2cdcc8cf30
p1826
aV3ef1f95b7492f3916fcf81852f5bb13b
p1827
aVa09e3d5114ee91518bd9f80da2231c1f
p1828
aV83a2382f158e6a96485f1c47105b5b43
p1829
aVbf85d135560277c56744c9d64d22d2f7
p1830
aV674cfbc95ad7575f74a9c6a51f46ad7c
p1831
aVe425df58f3a589340b2b15515a28ef9b
p1832
aV2af95df29a5635c57a2fd547ebbda6d3
p1833
aV1e8858742c53e17a551327ba1c97aaf5
p1834
aV51f59be383cd0427e87974f35c0436d0
p1835
aV87c965a6d91e9ee23a793b9619ea61a1
p1836
aV87a6a370c7364a30bada3eaddd028c15
p1837
aV755f8968c77217c18b16c6e6967b7b74
p1838
aV6ae7f2340b2047a949810d5814a089b4
p1839
aVffbc1c2c43f4199d75e68a88688b52d5
p1840
aV2796c8aa3421131bf3aa5b4e7973df0e
p1841
aV69950a8b2e26a1f98540d0bd7561f30b
p1842
aVcae244c847a162b89bd36795f4190937
p1843
aVb0ff4631e120474ea0b3b5a7d36b9f31
p1844
aV0d099bda556239ed2af075591841a74c
p1845
aVc12ec9d394308948f2d19a4e42080479
p1846
aVf1b12e7b702085cf2e0ea5fd26e37eb4
p1847
aVd4a525df317c355a8aef4c3497360365
p1848
aVfa063d7c36416d14e69ec75d742edd65
p1849
aVa33072cf1b48e6942a7c34b9d0ddfdc1
p1850
aVbd898ed1e6987e97c2e82acd85452259
p1851
aV368530fb3b03ce51047295761be8e116
p1852
aV3b4d3e7cf74647745c118330f0cc0300
p1853
aVda64e1ad0c98b088aeca3b4f792e7c46
p1854
aV92c1188975c95d88c0f51963575032a9
p1855
aV1b3c4203e6d7101fe897c3e5770bd9e1
p1856
aV8fef1404658e6d2fad2faec6e5c28ac8
p1857
aVf0d331983dc4ee4d65939c2b4a43d994
p1858
aV05a87f481129784628e2f0a3940df4b6
p1859
aVe0428bbb5460add15ee10a43c779f38e
p1860
aVeceb09fb03e8dbce02b61774a97e6b25
p1861
aV2a0f997b1878a5c96948ea6c2b334aec
p1862
aV146b7530191409237ff64c3055836409
p1863
aV6a58e9b32b4484395a5bacaa8ab52cd4
p1864
aVca3207eb0d362ff77e0964f19c3ec89d
p1865
aVf881639294b6da84f7b69e84fb51d234
p1866
aVa575fb81c7c912605267675d0d75d772
p1867
aV9a66242ed497d777272d9885b1f424d3
p1868
aV70fbd87ca3d9c27364561cbd34e795f3
p1869
aVfda5f8dafb7a99875eddc0765795ed00
p1870
aVfb9cff84b996d1870459c3b668f6e3cc
p1871
aVd2457eed349d0a3945955b49ae76781d
p1872
aV37afc07344583f4a3af62223d58cffad
p1873
aV6c30cfd176cd2cd7c4e94f7f5df0e0da
p1874
aV755f942e797e1f7bb700cfc130f79703
p1875
aV1255a753489bcfd16d34f21222a5d200
p1876
aV66ba8f44efde4605118238e6174650a3
p1877
aVe29e54af95acdbeb18b9f1765be3f4e0
p1878
aV2f43c99bba0f12f684f3f9766dc4ad11
p1879
aV771bf43729662cef5033360d00104393
p1880
aV34339bdccf2bfad6e5df3a0018c07820
p1881
aV0f0b64c1696e21eb184588edccf00ff7
p1882
aV18bf2a6bb5b7b43d876854fd880ea81c
p1883
aV258c8b2e21da0e5dd15940634bbf9341
p1884
aVd44f619568c523db33917a71c621ee05
p1885
aV9a1ec90cf99264b84764f5ef9c333eaa
p1886
aV108d403db945e04262dfd1f509787933
p1887
aVe32dd46701b165c54afae4d533c18024
p1888
aV5626d4739258160afafbffa3d4c552bc
p1889
aV2f932d19aeaeeb15ea186944ad341308
p1890
aV486d6b8ac928378a67f769c4b59ae443
p1891
aV3c857a089d45817bf60434c745f18e85
p1892
aV1978302d5eaa5b2764038c5a1f7aeb0c
p1893
aV7a65509b72b6af3a7b246669155a70a0
p1894
aV24eecd48b8a6131658944e4e47032acc
p1895
aV6d932a01250be47d26fbb26f799c00f2
p1896
aV0483ddcd3841ddd2e7a4ac4d9d52b1b0
p1897
aV243a8cd02db1282312616aa613274699
p1898
aVd7eb84d0388b3158ed86ada9d76666b0
p1899
aV943c8684cf63b13c88176614986101be
p1900
aVa9ae4ec61b0c0c8f3279df14d3f629d0
p1901
aV8d982475ff69f24de6ff104bb92f91b5
p1902
aV072261af1b63962d28399c7f9b21eef2
p1903
aV7e490fc7d21a7c8414ef5f825da4539a
p1904
aV8516f9208e947c1ed15acce99abae7c9
p1905
aV5e7b6dc38a6d875f23a992ff3e93a920
p1906
aV185fd904258abf1aa55de3227c95a197
p1907
aV69f5b143996c38bfe2a88c20c3d5b551
p1908
aV88869021fd5f6e57297abfa823b40a91
p1909
aVf97da49bbd2cbfb80346b6157093194b
p1910
aV1cb1d6e30d8e2937adce1ed93e42b967
p1911
aV764b7eb0303f39d06a4cc6f2b408836b
p1912
aV0fbc2654a7e763f4cb0b6645c9beba04
p1913
aV73530b12806cb386209712f2fc0ca215
p1914
aVe0bce871b8c7680cdf1d2de5ddd4b054
p1915
aV7038da35d6a646c0dd27382edac671b4
p1916
aV94411ee2abbd56fc60ab6eddd81a42c8
p1917
aV24c21993b484bbaf8b1df4799e58b671
p1918
aV2fd8a140dcd39d7ba59a2c56adbed726
p1919
aV9ca85a4827833abcc2436ac6c9c2244b
p1920
aVed58807e1740de4c379e7dc9801b23eb
p1921
aV43099cfab049dd3f8ad5ce81fed88461
p1922
aV7df2144247c4977836900a6a923551cf
p1923
aVde96a57149bd42a6c62a75321ecf4815
p1924
aV7550f72201649d59ad6ab89764693093
p1925
aVebe09e9d421eb5703e2b6a0c762d5bbc
p1926
aVefd6f8f7f04f74f2eb9ef64d1c36d766
p1927
aV6c7d9cf00638b2491c81a90229f73e94
p1928
aV7d9eb10e76d2e20b0f98a3fb50f629a7
p1929
aVf0d1b7b53e56d14625839907cacd94a1
p1930
aVd62762ca56ece986d1b5e0e7e621fab1
p1931
aV7047f9dd70aad4fb956140345dc7a3a4
p1932
aVd71f8e7c895fa65f83bb3f5985351bf9
p1933
aVe74d808f2a031c439b2efbf80c14ff9d
p1934
aV6358faba8012e360c29aca709f50c97f
p1935
aV3f47edf0626c5f086999a7563dec7724
p1936
aVa16812ef341e00e97c2ba99cf5ad9dc3
p1937
aV458c6c19160a65720c10187eedacf59b
p1938
aVe598dad609bbc3e1759eb68b87ef01dd
p1939
aVa75267293c21719769aef86afebe77c4
p1940
aV4720bab63e8a1e9422501d19197f9507
p1941
aVc6b434dc061251db4aa6a4be9b70df2b
p1942
aVbde05f2c9273b8062e2fc259c7340b13
p1943
aVfd1aad407292e988c7a6f06f03494784
p1944
aV0e2c0c5728e57712deef037462cc9b9a
p1945
aVb4257a53b744041bf92e50b40dbb57cf
p1946
aV86ca01d8856d2d9ecb45b3c4c87292c7
p1947
aV0e3ee1803941daee1e6b55891f6109a7
p1948
aV4900d81ee6b4eb4dd67f60a6ceee1667
p1949
aV6a4f3662204834bc3942e7da9110ae63
p1950
aVc81d6e3740d0a67d95bea6e6ffa18c68
p1951
aV7fec0ca3f0764b3c7461bf1fdae20c69
p1952
aVd942c61ff5c18fa33d83dd8d740da552
p1953
aV023f86ee1a882cf7460226cd54d770f5
p1954
aV5b9cee845a1d21726d951e41ac56e920
p1955
aV8574d17818462ec9db711186707da39d
p1956
aV4a1364e76fed68b3d90885b84437ba52
p1957
aV0a477efae6494bfbecb36704871c7522
p1958
aVe6547f285367f0fcaa9521bc22dfa65d
p1959
aVbe3dc532d3029eae363c50d58a974436
p1960
aV05895f5cdfc5fcf2ee6b7975b3549363
p1961
aVf0aef275af62f93d7da67f100aa2d551
p1962
aV972286d456cc91ee4bbe8cb24bd537d4
p1963
aV3ec4dc6aab70e184da78f15af3648262
p1964
aV124252a989c817b3667d8a45354c4e8b
p1965
aVcafcd46b2afbf98211289d267405aed3
p1966
aV762b84d61842a4bdab9b1367710cbd15
p1967
aV69e7119f616531d817b95addfeb97f17
p1968
aV4cc099034bf9abdb7f37d901db3076d5
p1969
aV02e0db9a1b5c011b680bc4c50996a6d8
p1970
aVf33279bbeff49e7e382db8b06ca1fefd
p1971
aV27bfa5e730a51b32628913ba3987f7e1
p1972
aVaea522b364a94b4bfb22d8943d6127ee
p1973
aVb16c48bcf815c786b5ebfa0b66d97c92
p1974
aV6960f59a0afc2d6d82ef826c7bbef44a
p1975
aV92f70b886d1a2b1f105478a3004b0ed1
p1976
aVf69803b152e6881dbdabf13d18c854f0
p1977
aV573948f948b5481483d5f8840162a1fa
p1978
aV2ca92f4adf16f5933d85e08cec56e83c
p1979
aVf1482b6c69daba257fee84e5adb8260a
p1980
aVe7525353d07404332252aeab47de962f
p1981
aV7621f4ae867b23337a64ce6ed918015b
p1982
aVc308390e53d812e18537f64be35bfad6
p1983
aV2e4d10091c9b8df25090d5ce833d7190
p1984
aV1d789633d3dbb9bda3eae62e00dac4b1
p1985
aV2bc01edabeeb9c71e0296b555bcdb6d9
p1986
aVf77c661e5a4a512ea9abd2a1d0c60f97
p1987
aV9d3fa366bad1edfa4fe36b3c84524d0a
p1988
aV57e4a02024d270e207ebb69a8bac110a
p1989
aV13ee8590b58ba8f48bca13fb64bebfb4
p1990
aV58efa28e799ecab4bf1f40a8f9cd5c0e
p1991
aVa8a49670c24352c005e933c6650a70fe
p1992
aVb13cd2ce6e5eaeb9142dab8b3ea799f8
p1993
aV7a61f7a2a9b282a6fcce68a059423009
p1994
aV2bedb334f466e395e380b631186b68e6
p1995
aV6cfceff551643c676fcff1dcaa94f457
p1996
aV27792f28d629da1d619df2f2b760d8d6
p1997
aV7b341ef46aacfdde40df9357f31717ff
p1998
aV208dd6e247aa7b81dd798c8976440919
p1999
aVa114965f0dbabce6c17eda1329e668fa
p2000
aV3bc08896e8d9f5cb96f23b374d6e5cfb
p2001
aV35df8f1eee16cc48fb87d852435f5a29
p2002
aVc02cadd2da91fbabd9f87d23bdec456f
p2003
aVe71273c8bc1d431436784813b82185b4
p2004
aVa0f44b3635463019e0e2d95e1f654d8b
p2005
aV29b6e6ec30d98a910d6e2d4cf0fafb89
p2006
aV78c81efabc17f60a8cf08ba21d59b085
p2007
aVe2912234fb75d40785c469f3004c70b2
p2008
aVc93cb4f5820ffaf22458116f321a711f
p2009
aV9e1b6bbf39286b8cf83a05b4f4552634
p2010
aVbac357c7dbb9ceb5ebd887731f54a451
p2011
aVe6738b4a566424d2f2306425fd3f3c90
p2012
aV6e352eda261fd16ff4be78f8f6280e04
p2013
aV95e8f6dd90d7c3c98dbd81f924fc1acf
p2014
aV73eca000478ac1fdc9184350ba36b5f5
p2015
aV389752f1640e41d8807035bd56435fa3
p2016
aV1e95d4e5649f4929fc77ab2f077d131d
p2017
aVc2504a389c09891f971662869dc3ea61
p2018
aV9b72428524ad2fda34862c5c9037d7cc
p2019
aV037edfbaf610f677ef06466c2d1b8a67
p2020
aV99937268b2f3f40be0dbaae5f0e4f648
p2021
aV2b97a1b752e5e43c41fce1a5f3dc867a
p2022
aVea411b1b862a0cb2ba559ddb4d9cb358
p2023
aV04542d03ccb31c063377774ef28624dc
p2024
aV09cdb6bd0b3250358fa56a63565cdcba
p2025
aVc47cc40e0669a4aba8adfb6d681ce2d2
p2026
aV659e857778eba98b52c64052de20fd4d
p2027
aVa807b5e2c82259a828cbd673ca44ea79
p2028
aV85d30d66448208fc8c702f801a6402b2
p2029
aV6f5db7775db976585d0c6cefc470209c
p2030
aV45197edfb31730b0e667bfbcf53f13fb
p2031
aV644feae68dadd1546e6ebc937074ac77
p2032
aVfb05907a4d9ef8521da00b952e00b4a5
p2033
aVe639ed946be0405b288efbfa543a9abe
p2034
aV2f4b71d6af4125f95ee1270951367d14
p2035
aV48613fa452922bc7be87590eb5ca38c0
p2036
aVc5550b6bd46545635eabc68b447ec683
p2037
aV5e44c2fd1fce1a5b3de32519eecc74b7
p2038
aV4fef9edea12f893ab4cdb5fe901dadef
p2039
aVc8b0abb0f4eee47396761d12727b5a0b
p2040
aV78970de021c5ceb72e4af792916ee572
p2041
aV6eff06443e172968659f0ddce1d11c8c
p2042
aV268e5c1a945757baaa37eb8f191917d2
p2043
aV2c864b20901c1e9fa61a31230129dd3e
p2044
aVf4519c752c866b9198ea16e90508156a
p2045
aV64a9d59a717c1609d8b0d2846a529a1b
p2046
aVf9d8ab2d6938fab8600aa93f602594a4
p2047
aVc7dff46708c693bef5b571f344d91723
p2048
aVb8dd7d40068697e9c9843e05015602a6
p2049
aV409cb4e33ed8b735b1cc9ea7e00a3843
p2050
aV581a8bc7a235d6c09fb2a348b4f3e607
p2051
aVb11bceb4817ffbcf3cd8fdfce8c581b9
p2052
aVbe1a163b37f0d95732ac925e29c94642
p2053
aV2bb3a2293283a5dbdcde680f5bb56c9a
p2054
aV7eef89a2a5ab9b511888f1987c2e395a
p2055
aV3e38a28512adc03f6aadf1d09d9855b7
p2056
aV87d8f6fe50abc25fdb7b46f02a634e78
p2057
aV3ffaeb48d1317c7071910a47cbb19feb
p2058
aV558d17ed2876dafb91eaef015bffb014
p2059
aVff2801461d324e00dc5bc7d2ee90c814
p2060
aVd739326beae18046dd0cbf940bf392b5
p2061
aV5ed5424238575f92a9aed6b0352995d3
p2062
aV175aa87c8930a2ad191a324aad028220
p2063
aV6af9b9b4f34a7d12e03fb21a107b6c30
p2064
aVeeb70138cb346cc212817a3756fceaa7
p2065
aV8bfbb8b6ef55d1d36a243c6e13016044
p2066
aV6390c4ebd426155a8d489352f1a2467f
p2067
aV4a38dc531aa170423e2ab8aa56a9f338
p2068
aV0162611e46f39795c09e975677a527c9
p2069
aV775c9dc2787331b9b40ce9fc614424df
p2070
aV30cc6acbb6dc794c76a27f0ee5ad17c1
p2071
aV2c0b70608de5a1bae7605380fe0b3705
p2072
aV59c90a84555562a7f078efbd28e6a330
p2073
aV0c69bbde8b8addcaf8b28dec9147d8ed
p2074
aV013974f0bd82110ce8d95d588073649b
p2075
aVf846eefaa65b3c812680047b21c9ae21
p2076
aVc3d3bafbe0bd9027f06fd0444225f3c8
p2077
aVdc0b7dd5653e42853f6f873275be1d28
p2078
aV149dfec2f8f2bb45919b40b6d3f17e85
p2079
aVde04cba5cd2a05db3a23aad57562594c
p2080
aV74d1c5d69af4f9447b930de1b3432b77
p2081
aVd8d4325d1627dd2b2a4c73e079fbcb26
p2082
aV0d1714a19d0feb224aa3f10c087037d7
p2083
aVe39f113e6fa89ef0b66bed0809571ef2
p2084
aV7c14fad44c203d610d9ee2ac143e16f3
p2085
aV2f96b86cd40364e6acfb8c32ff370614
p2086
aV69670da0488af08d4c1cf8119f83f582
p2087
aV361edc9c25345ee2715905180927afb3
p2088
aV6e7f2a9d38be332c70591767a23d33bf
p2089
aV7ad2f506f7ec2791a485e77ab6f3f353
p2090
aV290a5998d1b73d3468451f2bdeb5cdba
p2091
aV3610850fad1ffb5527a1e705a15cf468
p2092
aV0e6a3cce722742b98fb64c9eed09fc4c
p2093
aV28230ba92a9547e1def0f763be4ac92b
p2094
aV1299f790d4ed1a72a4058d0c6bac6380
p2095
aV5c68b98480ba664fbb60dd02dd334f7a
p2096
aVcfb289d7743a8f024ccac4b97fa02245
p2097
aVd13ad6725800e5ba4f4df0246ce8a38c
p2098
aV226eea06675c1cf57a9b6170eaa23abe
p2099
aV93083511ea0b922536da78a7dd7ebdee
p2100
aV829dcbd4cd8d5ffc9151c30edb0d2622
p2101
aV61c6a3e499d54ddab8b4adec37bb555c
p2102
aVde2b4cb7cdf10e8e3c950072d0f498cc
p2103
aVc7f04c6ec66e025b53dff356525d0581
p2104
aV90aecf8847fa4eda65f84b0ef07a1e6d
p2105
aV5448d96331545e38ab53e9fa1638c83e
p2106
aVc82a3443029807e7053e489431476a3f
p2107
aV4091366e1b7a86c7c178fcadc1e7c186
p2108
aVcc05dd1bc702ce0d9cbb20127e80f77c
p2109
aV6180e8961e28cd5c019528cb99afa34e
p2110
aVa53856d3c4463cf99aff3c1fb8efa910
p2111
aVe005bbac77db8cd3b819254f30960e01
p2112
aVf648b9eea3bcba3cf3ad53945306fc33
p2113
aV03bd61580329df1093c3ad1d8138eb9a
p2114
aV518bb87ea1154ea6ffc869d788b586b3
p2115
aV66133366267423f80af27ee20eec2463
p2116
aV53fdc0f69b73c1cfe67aaf06a0499c37
p2117
aVf7a9055a596a9908725c1f2b197fd045
p2118
aV69eaf88600af4fa7f6da30380f690744
p2119
aVa38637da1a130570c37cda3cb5c2804b
p2120
aV367dec99f915d4742c651bdd673227ee
p2121
aV08123efbf2b52a7b0ba8671fe683d663
p2122
aVc2b8d024bbf8bf553a52afebf7067715
p2123
aVd293ad454521f135ec33e3a61e6959d2
p2124
aV19a5598aec141b6d092f6fe24dcd5dd9
p2125
aV7d94973c4444995114ae3d0fb387e9ad
p2126
aV9683d8a238c25ef7cc5b0c157b7c9a9d
p2127
aV0df73ec42c2659b747d511e415f57c99
p2128
aVa5afcc37b3bb505a9f2bbc434f1b4d27
p2129
aV52388a340584cbe73ee15a03d161a0de
p2130
aV5f654e5af7dbe8a27a78e861f81f8cee
p2131
aV65e9e2fb8bd49fb90bbd4f0cc27d76ea
p2132
aV5feb335e80ce8c514cfb60b8ba54c084
p2133
aV4620b06dbdc16a827396ed8860dc6ea1
p2134
aV600cf58791136f2b2de4f9057c86349c
p2135
aV29ac0ffcc31c99e697dcf40cf6558840
p2136
aV7de94e3e297ad88778974945725e6af4
p2137
aVc4c35cd78d5163ab2e269ccf80f42c0e
p2138
aVb39696a40be5b0e5f1d4d4a3d07e2c43
p2139
aVd29db8c67cec28c5aa41050cbec117d9
p2140
aV4fc33b35f486da9abe7da79578cd2281
p2141
aV7353179378d9cdb8735fb1ee3426d8cb
p2142
aV79ceeb0dc4c00297179995a4e49282e2
p2143
aV564bfb13c75df8abd3af702cde59e56e
p2144
aVf37fc5515cf47ec3a3e3b6b32f749b67
p2145
aVc0f99efa675400e79905bd56568cfc18
p2146
aV704fec6092ad944915787baee815f065
p2147
aVb7d4c27aba4ee7d279e5b4f6449d00f3
p2148
aV8e9bfea0e9bc3d75f6c6cc650f5a903a
p2149
aV4bce164f20a31882fcaa7c6d01d354dd
p2150
aV0ba08d26df2e20320e9f59fce8ab0edf
p2151
aV54d528df53355f1031374f57efd20622
p2152
aV6b7d75795200d0990ba4c6dbe07fb1a3
p2153
aV62b3544223529ae04adbb33cb4093d97
p2154
aV79ead9f786a8601a91ca5b731f4d434a
p2155
aVf8c9f3afce22f09b2386c85e822d2d59
p2156
aV7a065d3d9c28873e193ba165cd958845
p2157
aV32b8999c2a76e45d8ba80b24b27520f3
p2158
aV623b120e49674eda3e97892b48f63b27
p2159
aV6204841244cf3f546b163aa274878b94
p2160
aV2ea9f648635f8f44720334732e7a9a1b
p2161
aVa1bb3a95a63cc174d869dac884289f95
p2162
aVb5fda5323e8d4e3608fae3b1651fc614
p2163
aVb0ed464b22bf169f197a453df4361578
p2164
aV8a80bffd6ecbb3fe190215fbc8764581
p2165
aVba402637f062252fc332b1048ce15ff4
p2166
aV736baf2cedf811478daaed427b16c11b
p2167
aVee8262e9b9fa6cb7ecf54d36390609e2
p2168
aV3da38489f40343f6c26efa6fe9086192
p2169
aV58731f085ea43922604e7b53adee1800
p2170
aV78aec5139cdb909bafe17fb67fc974c9
p2171
aV3179625170de86101db1af5f81bd5a9f
p2172
aV0b76381753f7351d209683fbe4782a6a
p2173
aVa02f4659f48c11881a2e4046cad16852
p2174
aV49c5004023f07a8576ae81b2748bfef9
p2175
aV628bf277746185d64455d0a584456a67
p2176
aVf8488ec885b64ece235ae55f93c818b1
p2177
aV553f4fb3336ab31ac77cc3a3ee4ba9a6
p2178
aVfba1aca1ed0a46b346832c92a321b9f8
p2179
aV8a8d57afeba88fa555d0fc1ae8624c54
p2180
aVa01ddc89586c5a931118ea84ecb05d94
p2181
aV1aab7bf47476f7cd43312ed66afac160
p2182
aV94e0c8549a9c846ecda0be51ab127718
p2183
aV80eb2594fd1c2fff271bdc7a07fa902f
p2184
aVb0304cbc67464e820bc403ef820e4396
p2185
aVd23f3d476fbb70558f4c8fcf195250c9
p2186
aV229b58fa43754f4ba0f58756cee27088
p2187
aV7f969b399dd5034cefe0f41d23820b23
p2188
aVbf6f784effcd7cc835f6dbc325a3d1be
p2189
aV5554b758570d7da4385f2d5809cdd3aa
p2190
aV0ccdc434a909100d5c726507e03f0694
p2191
aV4dc8dbdffd7432a5048e3811dc982e22
p2192
aV759d4bd5986f8d521c627019e886868e
p2193
aV7f0d5b43f210bbdb6fe259c4ac62401e
p2194
aV0228c7bbe906b80b9775e8598cc161e8
p2195
aV8468de31f09cd958d9959b6e17951f6e
p2196
aV3a2c1f69a35823b3916f2f61b47db827
p2197
aVb0e7dff6ff9f2d59c4186d1dfd7097c6
p2198
aV0f3e2fcb24463d5fd42da113594e6922
p2199
aV2233041e1561c081c6099be44a0fe38c
p2200
aVdc3a109a47258d5339c609bacbb757ff
p2201
aV8433cea82b637575a91dc44dcf7744d8
p2202
aV6f42e7aab2550f68af16accc7ff36eae
p2203
aVc994dab32935f9aa51710f180b30c4cb
p2204
aVf4090cc41cb30a7b3e7f0febba23692e
p2205
aV3ca90b86a07b286398f691d69d50d557
p2206
aV34fd448bcc17468d70a107b77a77a822
p2207
aVc1014aef79be05b4957e4af3f12ec9b1
p2208
aV7f4e5d8c11e13cac89f630d57d69c069
p2209
aVa3ccc37bb8a8ae2a44f8b0feed954f41
p2210
aVefff89c792d58c090bda2925538e196c
p2211
aV0205217a3fa44ce2c0f376028067b83c
p2212
aVecfcf9c7e929bfd89fff953676719011
p2213
aV79f5571faf2bb638ba7a168ed887b252
p2214
aVe4044861550378b7ed4bd502f9d5d630
p2215
aVb13cd8c904aab054342d8823f7257528
p2216
aV044740ba707ca925fece8dcbb30a6ff5
p2217
aV723e00a1776a9640e86813455a0afd54
p2218
aV25c906d8bf93a4e60760b6bd93bfd2fc
p2219
aVf7c1514c122d42cad9278f4a7d3e3eb1
p2220
aVe7a203854757cdb7613271c4f2d1ef3a
p2221
aVe8e6c60c76c52c46abb57c35de226070
p2222
aV434b633e9302cfba9ad1e6ca96d25c9a
p2223
aVb6f394dcab1029be3b43a14374facfdd
p2224
aV1bda67db876ca2426153888f5b273a5f
p2225
aVc2adf0c0220b939c43268881ec4aa9bb
p2226
aVe37665d812676fa4f53b01a509a4d811
p2227
aV956b2b5a486b44fe3385745f7145329d
p2228
aVfc7dfff8755f682fe521cc005f358d49
p2229
aVb5625a7d6652eb2fe6b6588ffd0a627e
p2230
aV818b126781400a469da61cc9b26def61
p2231
aVa206d1bf12e30ff2cc2f6ecb7cdbf370
p2232
aV71bbc69b555e5a414607e519ee560bbc
p2233
aVf97688aa9d270845bc529e23ea9041b8
p2234
aV1cc46babafd808ee7f64d6e9baebde15
p2235
aV172d284fc8c0d501a7fe798f58ae090b
p2236
aV06f83aaba7dc18483d10041f2ebb1c9f
p2237
aVcc465ad605fd595d024081755f2da614
p2238
aV897bd0a1b84e619d959910c39307288d
p2239
aVe27a33aca0adb3f35b7d78605e892516
p2240
aV8b6ab9cf681fe3aa69f2d6bdf6b0937d
p2241
aV586da88b90c3c7c1fdc59bb7cca1ed86
p2242
aV7fbdd840733956c0c5f635df5ffbfe68
p2243
aV6a618ef02e02832e0246f0b1e9c19a16
p2244
aVf43b8a0e4e92713c8ac2b6d0bc1ab4a0
p2245
aV4cbc6cda7fe14256ee30ebfe017c4c09
p2246
aVe28233395c57b03ec4f0ad1664b1777e
p2247
aV09fd9c2a0a32456fe6b83b242b825fdc
p2248
aVbc0b6fbe146dd62c511ae583c7255cce
p2249
aV20c53bd5ec0ce316a7e85ab7aa3bdc02
p2250
aV3319fffcaeee5f95468e2d93ad0fdba7
p2251
aV6bfe56f8913bf536a5a86926de0ab8fb
p2252
aV93196ff6baf535eb4a834564623bf247
p2253
aV9d72d0b32d1dcb723eff272c5baab33c
p2254
aVbf654cf711ecb525bde4c30dcda234a3
p2255
aV92114339f4b3c3682e5c315f98d37037
p2256
aV3cea0d2090ad11dccd425e154890cf5f
p2257
aVb977f86d7a8217ce462116dc6001a3d5
p2258
aV05218dd6339de0cbb1f8fce69bf46906
p2259
aVd896e76f55ba990c9867c3ebffde04e5
p2260
aV7a0bfe16d157044ade7491a79d8cbeff
p2261
aV1bffe6497f5cc3d4277989f2711df013
p2262
aVc38b5bebb9a4fa9757c5ffad8d56fc47
p2263
aV426fed91cc2689da9aad44c557dafff8
p2264
aV5234aeb5249034befd6426c0bab936f4
p2265
aVe0de3bd3ef04a3931c6facba2a7e8a29
p2266
aVca9ef118c264965d5cd03c583b4fb31c
p2267
aV84643a9015cc53c32f5a4e0fdaf5a917
p2268
aVde71d0c835889cd24c53a5a745401196
p2269
aVee633d91722b973dc38a5f10e8f29d3c
p2270
aV0833f092ed4030c49a45f8aa44b5753a
p2271
aV22a60ade1981c7ecf3dd342e8ee6d909
p2272
aV5175c74f6fecc9d8ef007c9629a95a32
p2273
aV1d77e999815eaf9e72f9b52947992322
p2274
aVe0fa42a1f2e7f776e0d8e44513c2e091
p2275
aV637e17a0a92bb5a90e91c6fae50082ff
p2276
aV14b14c9eb029e2dd04e9db19136f3ab6
p2277
aV15353b16e46b8d6133df8b62784b5c50
p2278
aV32adb1b14d1b430e79edf5735df1001b
p2279
aVd48f71b611b2117acd0def8c1b7c3ab5
p2280
aVdd52cef9a27591c3324ceb3b346a579a
p2281
aVf37d51bdd86f0cee51a966589ac9a21e
p2282
aVbb8a8840216cbdc20d17ec0b519c4330
p2283
aV3e7c974920e36ec02dfea216b9bb46f3
p2284
aV755116914de8c0f9c81673b8ce3aa389
p2285
aV1725caf91a69ae3bc7d7223663abd804
p2286
aV8457905daaae9118d3d45fd114b42e3a
p2287
aV6fe7194606ec1e8c026d109cc36da081
p2288
aV608c15223aae5fac20f9ce77e1179a9c
p2289
aV84441be3a6dbbf08613a8410685ca5ad
p2290
aVec1a1262379b25708d932d080922b15c
p2291
aVeb9fb134d23a4a2ad8cbe53bd8ca5ae2
p2292
aV50a958535b42d54bfc78899ba9b017ab
p2293
aVd1f73c2ae3d7c80ce901b3f5bc403013
p2294
aV59dcb3c5406c5fc091795951837070c6
p2295
aVe182033747d8047d901e2aadeaaddb78
p2296
aVe20b631766af421bbf36c625f310a065
p2297
aV8db002d076f1bed6f5ed80cb0eccd527
p2298
aV9f7872fc30e91309ca0ab26264752469
p2299
aVd0759aee3579b7b76cc8cf904ce19c1b
p2300
aVe6747a74daa1953787a95faa156e269a
p2301
aVd607f3b3d90babd155aef50cd90e1d96
p2302
aV0398bb9d1c9c197fcb45c52328e56ae1
p2303
aV1cdf50bdc3edf1047709ff3515ee4e8f
p2304
aV1bd7911cb050abc95c6398615ee7da74
p2305
aVd5a0b5914a3ec12fb4b4c85d1c0b254f
p2306
aV2911d66b19114bc40e56253dd3c1d984
p2307
aVe6c8ab94c1c5fb944ea913c82e8bcfc9
p2308
aV4494f65ebffe37f4c2a1f3fb07192bbe
p2309
aV8a5256f2c8f2e075e333d44bd43b9c1a
p2310
aV7d829eea27d20691c97ef1001a64ae0f
p2311
aV5ac9ecc40f0f94da7f1dbe715e97f8fe
p2312
aV4894fa26485581d1ec5820285963db2e
p2313
aV92ad03feaf9ddf2fc9dd5be7fcc4afdc
p2314
aVbc3ef0cf295bb964c7676b35c15f2a38
p2315
aV87ce868c7b5e82a16834b619aa5dac2e
p2316
aVfc9d8e35a43fde1fb4afe38d5968018b
p2317
aVfa6bcd7b1c5b2e4312deddda2f20acc0
p2318
aV68b0414ad7d6eac8a9dbf90fcf3cd6c2
p2319
aV9519a37cb2a54e207fa01dea5ce7cc6d
p2320
aV4411bd563f7698ed70da0901dd09f60d
p2321
aV171889ae1f9038728489d11679a1f3ea
p2322
aVe4381f97a838691ef2afe9a30718b9fe
p2323
aV0dab944b6cce2082bd028eef331a9b97
p2324
aV314b89fba0a4604c988dac4991de58ef
p2325
aV0b9c9b63294304d7da979bf5c58e84cd
p2326
aV78b338ce7f79b12da6c59b724cfecb17
p2327
aV13267e91f178e132b84950382d4a8e87
p2328
aVad01748579910c530ca2e917f4739b40
p2329
aV59e6124eb316d51e9803424631818c00
p2330
aV9c33c1e92e4f98b7d8f3ed1efbde396d
p2331
aV6e847fde10c767e0723951a1389aeb6b
p2332
aV6a34daa257fe02e483364c67f4d598f5
p2333
aVce899688f2474bf7a2ba9cfe8727a177
p2334
aVbd50642cdf566f56b7ccb73540566306
p2335
aV0b2b85bdbc5019b92f8d7617b0733b97
p2336
aV0e610135cc73bbddfb1773d2ee3597ee
p2337
aV5a4991bd5080f7cdf0904f871107e2ac
p2338
aVf15ee48602268216c09026aa25957db2
p2339
aV984d951c576b37d0bd4b8be2f407779f
p2340
aVcc16053c908647775c924b8388311f9e
p2341
aV228e0638aa20293af028cf894ed5fbae
p2342
aVf137d9c00a42b88717bc07ca7cb78804
p2343
aVd055ee98ba1f90206df63c85e68a6b3c
p2344
aV91ee72ee73ae53660aff3438d19416a4
p2345
aVc28653cdc6a6fd9e7025eff0740f09c2
p2346
aVc4c994532d39407616c87fb0b0f227f0
p2347
aV855201a57fc4b8a463ceb8b001aef430
p2348
aVf6f83b2fd74d9d12ec778cd4956d8155
p2349
aV641b1f5ace943389caeb1d6d9bd86edd
p2350
aV1f86d1b55919f046ff1be1af76f98df6
p2351
aVb6d5f011d3f2e8f1b2fb3d0f4226587b
p2352
aV446072de3f47ababaec8026e6b998816
p2353
aV849a60895f66b7ee6548f6577d2e55c5
p2354
aV2f5b0c157ae4ae4d0cb19efce4f1a6c7
p2355
aVa750ee06151fae2e04d42085ddf8710f
p2356
aVa8a7265ab50f35de632dec54de6606f9
p2357
aV4738ac202fc238ea83fcf0d4d1c84dbb
p2358
aV07bf6f55a7f9022a90378157b5f8146f
p2359
aVfb095bde337c255a893fb6caa418e148
p2360
aVafb43fe2e5d966360b1ba0cb9c423f4e
p2361
aV52e1b981962b0c50c8b9b264a6756d97
p2362
aV471713aa981c14db7e366aececb4052c
p2363
aV346e3223ff32ddef65e047578825b851
p2364
aV9d2e8321106bc11025145a5ac1b74f9c
p2365
aVbd9533c50219709207922d86edbe9a9b
p2366
aV45509fe64832a96f63a10c2f15fb19ea
p2367
aV3c8c308a48cd81cf7bb8425b7682d070
p2368
aVa7657e2275af65c5eeb88e6b7c3c631f
p2369
aV9a1ec31c4c42335613902ab3b8bdd5b7
p2370
aV355b21d9011942b135ed2e758af8ca26
p2371
aVb5120581f1fbddc2e855a9a47277bbf3
p2372
aV617cbaf34ec4902de569442dbfaa778f
p2373
aV85940e6cf26df301c538d3b4347bf351
p2374
aVed9b719664cb73f55ea8b30324ebd4b6
p2375
aV963ca8f3a6afc43b95d1d4b3ce8faf37
p2376
aVcaf57e9eb62e31797f6b21a339c44686
p2377
aV8f3aab9eac0cbaabe7dde60372f76db7
p2378
aVbe045f6e6e3331240263da6481cea9bc
p2379
aV4ddcb294d29969762b485fefbb8ea880
p2380
aV9707d91379d6a57632963b791b746ff0
p2381
aV737075414f568a96ed50df9d1a3055c9
p2382
aV6d1524c676fe05f7732a168dc087b0ad
p2383
aV089d37605d7c2632508b8f609fcb4c06
p2384
aV433526a672507da3b492a31f43a6f124
p2385
aV3e5b4a09bc6d4d896ef613097c0087e3
p2386
aV348c037142e60b6455dd17b9b1db979e
p2387
aV41bb3584995127fbd38c49beb775decf
p2388
aV1146622fab52c1137a3ecacc0a8fc4a7
p2389
aVb7581d2872997adcad80f479ec29311f
p2390
aVad30520001a63e28836967c6688aa307
p2391
aVc4223820d5e178ac5edacdf6366fba06
p2392
aVe20ec349fd0c9671169c9d9850e64474
p2393
aV906986993b9647102c5d4ef8b36741c9
p2394
aV70bbec825b9eaa4d9c14b31e475ab5b9
p2395
aV8045f5dff1bb7e55e4bf6b341888bf6b
p2396
aVfacb697d663d1c4cdb04df67eed0fdbe
p2397
aVc52c58669b99ffc9429050e5f186a86c
p2398
aVda084186cccc2fbdf300e77534e569bd
p2399
aV1b428a93b50b108d685f617d169b7e3e
p2400
aVa096efaa204be676a752020dbe473e41
p2401
aV97658c776c24f26930869d522165ae14
p2402
aV2225e7c26a8a07197a725e398a5ef3e3
p2403
aVab20121014251cbd7b8c1b82173373f8
p2404
aV5040ac557fca4270ab71b2bd77454c46
p2405
aV1b38dda7403dedb9272d700e4945a3ff
p2406
aVc871a7f96b694dfcac260771962699ec
p2407
aVa204b7704e9cfe75a9f465e90b9359ee
p2408
aV0ca277952de50d32d1fd029abb4b2688
p2409
aV59c0be254d5fc2d33b6c1c86ff15e6a8
p2410
aV3b34e3f693f211e6e866acfbd72fcb5d
p2411
aV9290badf6485461bcf579e9c9bb97dfe
p2412
aV0ac70ec4affc4d72c11945b05fc9dc3b
p2413
aVd768c0d8c415b8588d83f0f000b4710e
p2414
aV13ecdb1f5e546149280ee78e63f06f15
p2415
aV7db34c0a24fd9b297c8312efa7aba5b4
p2416
aV87d39c8ada82f6bcf83716d47ba4697f
p2417
aV044231527333bb8fd43e4568f31c78e0
p2418
aVf611528ecbceaebf79750e54933e8f9b
p2419
aV54932ee099f73afef66ba472db2f8776
p2420
aVbbdbe65b6c1c34d5161e4a9484b001b0
p2421
aV5b63a0fe0e2a89955ff339d55ef8e493
p2422
aV9cb7f97ccbe087cca55120cb58c6826d
p2423
aV50bd42a0d3ee28c14951b7533d382042
p2424
aV360d86398364875e0362de4333028c92
p2425
aV19f7920c72acdee8122cdd7ae82b3ac1
p2426
aVba405436a96ee9f3d63b9aadb8da22a9
p2427
aV1244f80a2115cecb5556e3e6f3c2b9ff
p2428
aV0eaa8f099bf4fec08ad98c0a6b350b6a
p2429
aV29badc35667874691b256ee14fba9da2
p2430
aVb52498d42df7b279f87548de156472f1
p2431
aV07e497c3a5830836b8c4081bb4c03e4a
p2432
aVb27cb42135500cf623f54776f98378d1
p2433
aVa0cc21b1ce2f03356c38bbac61810522
p2434
aV29b1f9d7e909bfdcb772f2d4cc0618cc
p2435
aVe2ba830e2dad76352488e53474bb4ee4
p2436
aV712cf60f5b43e1e80d70a55cc2d09d82
p2437
aVfd5c926fa9e0a942b35f770531cceb99
p2438
aV38cad33db6071b699811e365a128071b
p2439
aV4ff26c2ceec3cd1dbcea48e7da48d807
p2440
aV737f19f181b44cdd1134de8a9a6b59da
p2441
aV16e836cc49bdc059e04fa855b7110b12
p2442
aVb05c0db49130f3b37ec0ec544f4cc453
p2443
aV9aafaad9412d48c10653d8651c264f22
p2444
aV1d9d4444470bc56d017706948260b73c
p2445
aV0af1487da6076a1f49eda49b5b696b87
p2446
aV559a2059c50047aefc7046491a7d9bad
p2447
aVd7fcb9dd3708a6b209e3798561592eaf
p2448
aV11a212b765e994119c4591d0099875d9
p2449
aV7ffa6ad5d505138472f474e746ebd242
p2450
aV56db59f9cd0ffea9f1a83b3ae3188427
p2451
aV3a13563aa5738463bb18d40a637d26d4
p2452
aV73bccab23445707834145dd5e9de15cd
p2453
aV511d0ed87da391a4fff33c33302d770a
p2454
aVd34f5378e94f1ab4de50c15943ab5e2b
p2455
aV8f8bbae0ab03a822ef42f0b85ae7f2a0
p2456
aV67d99f0d2e24bea3c411e5f7ee209123
p2457
aVa56a07f03801ba0092d87ceb2c4be8e7
p2458
aVd9fd073f685ba6834c324f2eb8b00915
p2459
aV57aa50aaf4079123459ba4d22000df74
p2460
aV0c69607fe2afa730a69f055f511bbe6c
p2461
aV2bd65c52e215d54d830857ff7e0350e3
p2462
aV1e37b066a28738eab7f178469cbda937
p2463
aV348e3e469d083d8b424647c8e056d13f
p2464
aVc568ceb54348e3439c0516a3806bb02e
p2465
aV67093e8bb2c418562353dea508147369
p2466
aVb09b100677c266647b48bc2fe789a36f
p2467
aVab48553a3e662512ea853aa9d2ee245f
p2468
aVc5a1debc7b20aa63cf8ba8b4f105a0f8
p2469
aV0d83dbc255f1992ac456b915630b4299
p2470
aV2b41e0b6fdb174867cdf820d21cc0818
p2471
aV2e314bd311b59cfdec4311448b8f3e96
p2472
aV0ee45a68f46091becf612dadb84f497c
p2473
aV3a46c96433bfd51f3af22b6a891ab776
p2474
aV4df442a204315c0ed449f041e37d5f14
p2475
aV206f82a7e7ca10618abe7e34fea8bbc5
p2476
aV86c04f7988f0d6b10bd8bd948e68528a
p2477
aVc54c443f15bf8b113f3feb7bd3deab2b
p2478
aV43d0fd4db9d9fd993da92cd3695e51cb
p2479
aV66e6c2cecf2ef3715f91bfe55eab1c1c
p2480
aV89af920da1f76951b192a907c0249241
p2481
aV7dd7d20fb79b9a7c79fbca931148362a
p2482
aVf3871d63d49ac4292a21c88fcbb1e602
p2483
aV6f6ed2614a91b95085865e9b8b9e2527
p2484
aVd8752745ddf9d2d00ada0e9e03b7123b
p2485
aV5099b11c938d2e58c2a017f03c78f4f6
p2486
aVde1efd9c84ebc36d710e9f1528420812
p2487
aV3582af931c40bda61fdc62c02d549bf6
p2488
aV6993432c7416099f9e0457a68461bfc4
p2489
aVc1a1545e8fd3ed39b9cc3a5164da94c9
p2490
aVa3608591b995ff82bbd58efda339c0b9
p2491
aV9fb24708580f80fd5084bc4e5be69ad8
p2492
aVfd4e7fd075c5189d5f9b7c5384d18fe9
p2493
aV9b555d42a003653308c9aac4851bd19f
p2494
aVc712ff72be8fd4ff02ef9b6c81897c12
p2495
aVd32cb7d5d07a1e120b416dd1c3fd5f72
p2496
aV998340475f10f8bcb82af8be082be967
p2497
aV0e1d5b8f0b621da711cd1943b09400b8
p2498
aVa4dc00be6fceb146f6de1db99c2fe93f
p2499
aV97e2ebb467b9db89228e5f72597eb71c
p2500
aV2a20b0826806047ef31e00f313a3ae9d
p2501
aV53a927e0a3b458026aa77425df3d5308
p2502
aV2ac4207de8b48f4de23bae26bd884982
p2503
aV72c89ed276bc01b48f5ed2695b535c50
p2504
aV5913fe34a9baf7fed53fa4cc934b3edd
p2505
aV7fce40c2bfab370ab9226810a5f1441b
p2506
aV355ead0d4478d70dc2696093ce4da3e7
p2507
aV6b0dca73111e6cf5573cb3935d318c70
p2508
aVca0d979987fad0f1b9697a2d7ca062ef
p2509
aVce52adef632b9576c453e18593b12862
p2510
aV4091c78b3e219de03ed3ea01dd596b86
p2511
aV4de8daca34d1ae6c715103448f9353c0
p2512
aV5b456d087a4389fe2cb6b0ffb96f7c6a
p2513
aV32dbbdc4c27d471f10640ce23b9f639f
p2514
aVac9554b1364a31066baf35d9cd7c968f
p2515
aV69290eefa8689ae1ada079dace745346
p2516
aV72236b5751e13c2e6fcaa9fd9e030014
p2517
aV980fd284a345f0ea97d139196abdd255
p2518
aV09fddb84cffebc24cf445875548c0b09
p2519
aV8274f66ad3ccb9d1ee9bfafb3db9a2ba
p2520
aV1e6451b43d635e5e5b3e405366e6c598
p2521
aVc8ec5664db962e9190afc3e72cdd506d
p2522
aVbb83e93103235dbf61b787e51c4c09fb
p2523
aVa55639a7c4608fefb4adb5b509439df0
p2524
aV5e990ee5bd4e3972ce256621755dbc3c
p2525
aVb7318fbd346b669df012ea083c6a08d9
p2526
aVbf8ec6a29cfbca7c09331f6a3354d18c
p2527
aVfd693da0158933f80e8775056511778e
p2528
aVaf2c849e14c9063d6a1820abbff7a5ca
p2529
aVa4dd0874dee486b14f2c69aabd2b0bc9
p2530
aV4b9c3d7a7378917b019fe651e775ffa2
p2531
aV9579fb9c7d49197780a4a18cc1709961
p2532
aV08d07a3ce66ef4ca40e60f1516b76282
p2533
aV746be213e0b645c179854300ef9fe746
p2534
aV2310f949c2871aecfead6deed77d1502
p2535
aV2426118cf29ff4cca5c9de94654d7c0f
p2536
aV7dca7872ad6c8704aa9e73f307b475b8
p2537
aVbf9cc67dbbe05115681384a3dc883d31
p2538
aV1188550b40ebac968152d647512f1678
p2539
aVe86925f9cae8fa502e48f1784701c3b0
p2540
aVf9656b2e6ca4eaa1681744611c5c7c0a
p2541
aVc4578ab7b1561294f12342c7018f1036
p2542
aV57da46d5e890d14a31655c24e301be9d
p2543
aV4b2132fbe60462667bae8997ea195820
p2544
aV986fdf394394f4f0a6b02c27300a8004
p2545
aVb6ee373fc5ea4e4cf663ee58318229a8
p2546
aV80b2859d62a25973b91c85bce510f441
p2547
aV2a1244b6ef06abb2eb4f6a08a61f78e9
p2548
aV1f2e1063726fbf7a4862b67e4696c0cb
p2549
aV188f7a9e9dfeba6813165e263a08f92a
p2550
aV024019c07c3bd3e02570f3b183e288ba
p2551
aVeded7ae63d04f794bfebfe5e5037c5d8
p2552
aVe8c16b1ba2393b8b7947d46b20b07fd3
p2553
aV5d2531b984a1de329a0451483578dab3
p2554
aV6ee416bac9fc47306d63dd1ef941687b
p2555
aVa5a1624e686a0f2af6485464bfe9877d
p2556
aVaed39e3cba9f76a790c062d641ee94ab
p2557
aVfdf16a872aca8325eff1607e550f5e97
p2558
aV788c40949f2e905762d3ad805eba9c75
p2559
aVc8842cc993e3c1b8df65fabf67b86502
p2560
aV2140fa8339ab66073f53032d1da89398
p2561
aVd9479aa94fe5c64487670b1be1cfeb82
p2562
aVa70b8214626b4936aa2ee84dc505676c
p2563
aVb311c079253233201aaf90d5fdfcd196
p2564
aVb0294ba168ef600b8914751af3dc0e28
p2565
aV6c30fc8b3003d3bf22cc5b5ba516146a
p2566
aV54c89c5611900ba65eee9c8778b4cda3
p2567
aV42e8f2f47ee4ce08ec890d37727a529f
p2568
aV6e90b5bc97a3bc66b7dca287ad6c2ae4
p2569
aV0f04a8f57652f78c60325f45995c3730
p2570
aV494fbbf1ad25eef2fdc7387096866a7d
p2571
aVa195e737dea7f30c5213344587d345b4
p2572
aV0dceb24d4757b6f554053db2b514e062
p2573
aVecf3ef55e4c334d6a43f74d791ef9590
p2574
aV1ecb3df14cc16d739d1abcc62285ec01
p2575
aVa699aa13797db78da520d2f1fa6085aa
p2576
aV57d3f448448c7ce47fcfed6f3a08d4d7
p2577
aVb6aa60f8540c5dabc2aaa1178b56f773
p2578
aV93afdb70f3a85a4680a39d854d1e9449
p2579
aV7ace1559aec407c0429cbf7957e3cf1a
p2580
aV161097e7c443abde7e661ba66ef9a565
p2581
aV80d3bf35ba7aa2a3b938244a5be3f504
p2582
aV9d6d2a5a70204eb8973333b1f6e471f9
p2583
aV4fd5c64d90195b84200a6cdee0aa9b85
p2584
aVa10a5d022a4c701e1a1f064b5d9e2af5
p2585
aVbb30ac0bec9cdcbe18443fad841de9c1
p2586
aVd4ee056388464d590f108cbf5735b301
p2587
aVc471e8c3ef5adb1c01cfc69f1fa3e54c
p2588
aV74a6ca09e463a3c0969084c1e5c1a256
p2589
aV874e2bd3d5db9809524cd9467feae865
p2590
aVc29ea9b3defe38ea8467394a4b23d4f4
p2591
aV06b912c902c6b15239ab631fd14a1bfe
p2592
aV1717075e9bfbf5e0f75d51a0c0d75743
p2593
aVd22af8a991f94604657187e93b082d60
p2594
aVf4c23b2fe79025c3f54bd847a75f4204
p2595
aVb22bcfa6ea4314d690afa719ece2e656
p2596
aVba6abf250ea4e634ea43f25f70ac37a2
p2597
aV4b1a01c701252d6f4da96cdd86871560
p2598
aVf64b0c06a374772d4c149eae4eebe4f9
p2599
aVe986e8b2cd579c7d05e2c48248803b76
p2600
aV42e19a476f67d0b2646bdce690a4b797
p2601
aVb3d577cbb260aedc61e63112fd337ca2
p2602
aVb7050fed38cad45239f72fb7c7919fe0
p2603
aV9753450fc07ac50d17439407e5e00a67
p2604
aVbac71a3216a09befe1411cc994ab3d3f
p2605
aV3f8b9abb80b8638031754fd47e840772
p2606
aV3fd63a9e575d60b86f37f65f723f8f16
p2607
aV74906829e9af3220019372346fdd7455
p2608
aV80171ca39038bf183288b873e4ce78a6
p2609
aV1d656a84cfa08f89704ba21d050697ed
p2610
aV6f775cc2b6903574df3f474fc1892f88
p2611
aV134f4715bef82b40dd57422c642d0643
p2612
aV551d925ee4f3b9652f5a9b2514d9681b
p2613
aVbe3212d49d80da49ed84e87d22f7966e
p2614
aVd06240c6a33655a84b86798d4db9e1fa
p2615
aVd5266d8b2e4c51863a06c373ecc38d8d
p2616
aVbd8ca08952d6fa96beb1caeb7b65a19e
p2617
aVdfd27046ce342e74a95bfdce68fd82a8
p2618
aV25051e9a0e9cdd38ad406c4598088f44
p2619
aV42866b848671acb6846bf03740d9964d
p2620
aVe7d47cbb333b7757ba2018a8b9eafb4b
p2621
aV2e7715ebc721c929ea76fe7289216197
p2622
aV82d8fd754fd2e2592f63b71befc6ed7c
p2623
aV7b38662fe24782284ac8ed3c8e561979
p2624
aV7ee2f8be880b34cf9c9c31c58abd116d
p2625
aVa1c09d81eaeb20c993e7e7b067d53076
p2626
aVf156fe083d48162f6b425939aa45087e
p2627
aVae311bf058e4e5baa015883b6a73f9d4
p2628
aV0d3688f3806853491632c09afada33b2
p2629
aVd1f0e41c25e9aab8f561deb16ee643d2
p2630
aV0ba0d20029e3bc16bf391e548cf8d5b6
p2631
aVa131c95fc02da5ec0b1a3263a56bdd4f
p2632
aVc3615664fc5734972c5868d238c72db5
p2633
aV7d02961067241c48bab4dc348e66e251
p2634
aVc5ca89c8b56fbdfa092e1fcad59d0b26
p2635
aVb7e804c36ccb3e3d613cc1ecb58c30d0
p2636
aVc8ab782e2a6cbece639a4d40ed87d95d
p2637
aVe5ae41213822965489ece1e3fafb4566
p2638
aVfb1ff8070ac982c6813decbd954310f3
p2639
aVeeef16b95f7607389e37c90870da3bd9
p2640
aVf0399c14415906c29b6f221f1710c01f
p2641
aVbc2ed44c5dbf7b503120a79b1a04d9b7
p2642
aVc5b1d695aef43fdd6e348a877b5e9e65
p2643
aV33fcaeea24016ac03440105ecb2f11ae
p2644
aV60dba516b1e9c5f7a8a3986e0c2b18ba
p2645
aVa701dae2770f5266fe876692c17c6eb8
p2646
aVe4b7dc1827998a4fbf816a3fec7ed29c
p2647
aV2144fd6da49eb8ee7686e47d7e9e361c
p2648
aVf682c3f3467f44159aba5f001a58ac23
p2649
aVf81b3f53be46606703f8bca17d503b64
p2650
aVdc4dec76be4054f5360ca541a42d16f3
p2651
aV46f1ab69fab54d9101d0a304007ee031
p2652
aVc50352187a75c45c3e84c29062e7ece8
p2653
aV177c6488d2b6a7d96d7c99ea33eb7aa7
p2654
aVfbbf6c45ae2fea609009b59546221ec5
p2655
aVcc74dd74467b010f304df607381189b1
p2656
aVfdc14db6cd06a33d3241227343e0ac22
p2657
aVb5c479c3adefcf9325da771a26620838
p2658
aV60dc84d8cb59fedb7473e3e94b37ce43
p2659
aV69d32165c8670733eaadfcec3267188f
p2660
aV84667729579491af97c51827327c2cce
p2661
aV2e8a3c845cae92bfa5390db2042d0c56
p2662
aVc6ed541eb5f9d2f39769e68e7ea01e03
p2663
aV2d9be60838c23c3648077d31e1066a22
p2664
aV3f8022e20278e548de3bdb50c8c599bf
p2665
aV31110a8a1e487d58f82abf0721d63cc1
p2666
aV84177882df0b91163747cf02df5f2db1
p2667
aV7d2d0d44b2c8a3985384c82186325ca5
p2668
aVd445b51518a07f7f00cc0c7158a1051c
p2669
aV349c192127d4d89e8fee3a6c40df2202
p2670
aVc848bb0dcfeec250703b12c98b2fbc36
p2671
aV6b013655464ab8299ed3b1b8e54d7896
p2672
aV0ce683687744e9ed6915a5617a53b3a1
p2673
aV3fc5d446541935c0437b3274df115424
p2674
aVb2fd51498d0fe6fad2099f63da6207c3
p2675
aVf11a7e60a1ad4b4a9311d76dad2bc73d
p2676
aV5fcc0efb71a6ad17587e7d2666a05f78
p2677
aV3d6ce317f478981d2db34232218bf7f4
p2678
aV40f80a97170721f6965e703df4cf366b
p2679
aVe5e196ffa45cf65ff94b7ae0de421b4d
p2680
aVd0ec54eb2a1c1677a69fa51786e1cc94
p2681
aVa315aada486a5131fae46f8c5facc916
p2682
aV2c1b497e2e98b886b727e946eee6136f
p2683
aV1af2cb26ec0b1e8750d8727b7f7bc843
p2684
aVbfb0522e210843e1e96f942f6b4e263c
p2685
aVa199b8521ac0bf15ae15c39cf6957a2b
p2686
aV30fd7b94ad8b0299c20bd60503f62aa0
p2687
aV948c5303c4b40a6b7f12768804a417f1
p2688
aVea6fdfd2fd61fa86ae08b0392c01625c
p2689
aVde234d9ddd071406b1c5836975290ebf
p2690
aV9f78b2fcd58202def9fe9c0cd4c661da
p2691
aVc9f8d04f86b6c04e81f59303cb93ab7b
p2692
aV9621b5a04b8431b997c1de01888bd038
p2693
aV8c84b3d09d8c7649f0310dde3525648a
p2694
aVdeeb57a8f905debe4c9dce29a2c0a87d
p2695
aV3bf899a0bd70e0726a585f25d0718585
p2696
aV5d92486626149bd011198a8ea3ef23a1
p2697
aV2bbe0632b91602d741eea10fcc244899
p2698
aVcb86ad08c4387ac5adfd4d2ffacae4da
p2699
aVa378e6a52a12eb4a215614101074763a
p2700
aV3f9c00292fad3f7ffdbbf569e1ebcc6c
p2701
aV5cd81688957661dccddc23e34ec0bef2
p2702
aV066504b5235c04ebf4398d3227e5dd2c
p2703
aV3a15ab5a4c07e82effd3e24169e8a89a
p2704
aV02a4f98776434752c8795e403a40dd35
p2705
aV37957b5628a4debf56d609f6c6328d1f
p2706
aV55f691ab4b6fe1eeb799cb91e506359d
p2707
aV342f755ef43006499db4bfaf82c7c2ea
p2708
aVb49c9bf3280d1c620d753339a8a66da6
p2709
aV8afd8ba7074f630d4c2ad53d907483dc
p2710
aVef4d86149be333827a6666ea51b2e19e
p2711
aV6cb7f9a51f1db72bf33b655ed32ffe0c
p2712
aV53049e4e108be559b5a813f53f39e202
p2713
aVa8773a06eb4a746ce1e9574c22623306
p2714
aVaaf3304bbe91261a9b290bef1f4ef90b
p2715
aV18681193433a9f8988f9da851084f2b8
p2716
aV0834ed46e8b0433a5687bec68fc539f7
p2717
aVd3dfed79b3866dddcfe1c11ada983a28
p2718
aV44ee3ed7321204c818c459f444f83dab
p2719
aVa6a2a29784162645ab007161aa16f630
p2720
aV9cf07dc0fea0ea19a9230d79000e50a3
p2721
aVfe814d4901c0ed9209fc0b90a2b2cd99
p2722
aVc0e24e5511323357cd5a64f3d37b3e87
p2723
aV9e6bb7e4240010467bc932ec0f251233
p2724
aVbba9d72c406114502a9fa12c0efdf5c5
p2725
aV39913af736606a1867b4c09e837c9048
p2726
aVf419bd197c91045f0bd06a820a1c2163
p2727
aVf1c9dbc8baa9e27efbf0a20ced491b78
p2728
aV115b2ab0b145f519fa79fa6b5bdce888
p2729
aVdfff1a3b4f99ca53f1907c7207b3579a
p2730
aVf4287a639754dc7264217ebd22b4308d
p2731
aVd099dd019c2ca99f757bf7eb571006f1
p2732
aVf5c7dc15ce7c394b9f563215b9adf21e
p2733
aV0501f7df98440e2a037e215663279896
p2734
aV4b7f9471f11cf635ef12d400a339c13a
p2735
aVceb56e224dcec3c2f6efcc6c6d914409
p2736
aVbc0b63bffac2a0bd3cff7859da17834d
p2737
aV0538db786a24d1fa638a3a9a715816d5
p2738
aV947b936b79ffc089bd362597602f4feb
p2739
aV3853817bb87ff74aaf54bd17d76ad8da
p2740
aV1d4c17bef5de5b70eab712f58e8faf36
p2741
aVc39433aa3858ab946a7065e9074dbd4e
p2742
aV4666cf3d16ff134c6ba703f186073a46
p2743
aVa8f52391353e2a84185e50dff0bc0fe6
p2744
aV6a24edb87958a4ac906a785a3da18eba
p2745
aVbe1760adfd9a1b63724502efbc299451
p2746
aVf299fa5c8cc10db76f2a0984594ce217
p2747
aVe16cf6b499b803ce46ed708d6c17315b
p2748
aV9065dd5d476525386885d818f160f7f8
p2749
aVa477793c335cb10c08aff6ab26b8cd2e
p2750
aV0d4abd9429fb5ecaabd3677e66c26c68
p2751
aVd619f391647472cb3e969dcd6945a8e8
p2752
aV6492d8e22ada0f10e9072ed882ea6525
p2753
aV420f9e429ecbf468903ad526933a47bb
p2754
aVe3ae03b9407a2c93f82f4e414874c03c
p2755
aVd6f91e4429c32bac77874ecbd7dd8c4f
p2756
aV8e73ef32e7d09d6363606d995c111b72
p2757
aV0b5beacc892f0da4267dc7b1978467c2
p2758
aV3088aa367ff05e503416bbd0ac05afbf
p2759
aVb77ec9f14bf18e4b2e821f3db6c11f99
p2760
aV78c93247c421fd421492e6987490ab7a
p2761
aVeab273686e53a762c8d9627401f2946e
p2762
aV036777629ebd38fb7a48a7278786736b
p2763
aV2045992b769fc8d1b32ee1859f687603
p2764
aV26078ac400e57e6efe770cf7d2936af0
p2765
aV065eb37150d62d10ed08b6346e2e8b38
p2766
aVeb8fec651d3721af14e0cacdeb3a15cf
p2767
aVedba891e3dd144687e7093e80a01e3f2
p2768
aV6509738d02ecd127d4a51533cbbef91a
p2769
aVc8b8c97e3dc0ab80ca0a3397e6da056e
p2770
aV0e8be9de3514ee594a985d54db06d46f
p2771
aV6afdba7183208e1d6106458e7adc457a
p2772
aVf5224ae3eab02303b0443e830b723669
p2773
aVe5841046741c20b6f161cf629f614655
p2774
aVd2438ed286df39b1a3055814aa878724
p2775
aV4c398e66156ced785dd13154265a4ee3
p2776
aV4510bc17e1bed0461d49400b30d4ce69
p2777
aV54adf90447f51fc9cb7126e1620e4a13
p2778
aV9ae181f858a05d036bb92b3b977d976a
p2779
aV1eaf12af1300224dd9be1873b430874d
p2780
aVb5d69e2445dee842d9f198b117e9642a
p2781
aVc55b67ebf3e08a8031bd4a134bf9fef7
p2782
aVfc5d612d72b1379a2f2fef3d35cc5bcb
p2783
aV42ec54f338db8817a24385f81902255a
p2784
aV702e68866a340a44490445eb05285e8c
p2785
aVa8f7ffcee78627b2f3473e6e39eb618a
p2786
aV99c57350b37947e331af669a84846776
p2787
aVa1c7d28e686a30e0dd6625cb18aa1348
p2788
aV38ae699238fe718fadb0107939ae1a97
p2789
aVcb5edcc0d1f23bb6dfa591cd8ba3cdb7
p2790
aV41c604e1d254c66181baf4293a53f9fb
p2791
aV0230422e9e4d6ad9801ed07ece9a809c
p2792
aVdfcb00eb12803a4cde5c099e6b328596
p2793
aV645ba6ecb046dd6b22f778e1ce858900
p2794
aV0fc1039c595a9a5d520a3440dbc0588d
p2795
aV50d1416ad5419a1cad3937c6b7390387
p2796
aVf04ca03edabfb7ca45217bbe0f50f661
p2797
aV53da32aaef9b663cdeb635b970317681
p2798
aVf04ec906a09886e8abe69613f5d0dd7c
p2799
aV062e46d1fdd0f18e04d49583facdc405
p2800
aV1fbff104a3039bf4261948cf68937a4c
p2801
aV931f08a7ff414fdd11e5d998638de5d0
p2802
aV9ace5b37d6efbdef98b7588b67860df6
p2803
aV7dbfd093735bcec53b178050ee2faf42
p2804
aV33a65b8f95d694a256911d647f402206
p2805
aV4f03b00c4dd4925990d08eba68a1f7da
p2806
aV5dfe17ef6b632580bf320330ef3c99a7
p2807
aVa56495b56fd29c89dfc21bd2dce652a8
p2808
aV66b3d4351f7476e75ab46647a0186bf4
p2809
aV6693ece6b8b2cbf37f4fd9337799247f
p2810
aV973b552a062703fdde70a4d6fb86cd99
p2811
aV960c2815c819a7ece315753be3bca714
p2812
aVcd60fcf44636303bf287bca1724a46d4
p2813
aVc5541a7d9fa489bc6642fe5dc68b2c89
p2814
aV63d402ba01f0de57436284af22d34812
p2815
aVd0f0abeaf6424f14b59190203ac1fd87
p2816
aVbbc571d332d51f861596adce9b7b2954
p2817
aVfce68f7a2215350aca076b00e6dc82a6
p2818
aV4eb9818b277bd52edfba9d06dce1e17e
p2819
aVc18b9708fd7b31145fc89738e276e654
p2820
aV5b9c480826a679390a5ee99497cb6798
p2821
aV1f243b74d5281db943095796efe32ca7
p2822
aV5b9cbf65d307498ca26518ee4e34740f
p2823
aV287bf62f8387f904f633e933a7894693
p2824
aV2dd1ccf0eece62c345d44e657869a2ac
p2825
aVe784641b054ef14bc64e88a669af980f
p2826
aVb17eea5d1a0f844443197503999f2567
p2827
aV321d0c4e860ed9c3e042a62856d3f7c5
p2828
aVa4f4a522bc10337a5b4f47850d14ccf4
p2829
aVf72854fa9b59419e076c004274b60c7a
p2830
aVd790576915dc04ecc596f73e8bd13d6c
p2831
aV2da3726299b67ecf77f5ad2ae910ce42
p2832
aV6635322b7ef2e6f8f153001084acb2d0
p2833
aV50d67e32d893cb3e18a3cfb3353167ee
p2834
aV6c9d3961c5e8446a9ccf9910d6f64690
p2835
aVdbc6ff9f52a7e4b68710208be661b9b5
p2836
aVfe42d4c6b16799f607641cf92be54478
p2837
aV5373216fab4673507d2276affcf86869
p2838
aVb6c26a73ef043a3c68ee2e04c5e777b3
p2839
aV53555b10138d913720ef15b9119848c8
p2840
aV34da2b070434795b6db773fd4a19f8d4
p2841
aV7e9c7ca5fbe09f26207f59875b2143e2
p2842
aVf728d38075d411db2c4b9946612c2683
p2843
aV7abcc59d31816fbc6dfbd690dd9cb570
p2844
aV63d172c10863e63fe62570860944b2f6
p2845
aV4f0f6d6b78d253e2f003961a6e2ecc37
p2846
aV99a772ba1f6cb7f25dbb6ad8efa201d5
p2847
aV7cf04d9a28a3a491df2f23da988c6e5c
p2848
aVd8792dac423c7cad46bfc4be96a305b8
p2849
aVad695d6c86d562cfe6fc60558aff1954
p2850
aV3e04ae329fd8fa28bc11f2b379dd494d
p2851
aVbd4da3a86ee71be60d08bc3faa4356e4
p2852
aV4b3ac75d50528c36c7c6df489b4476ce
p2853
aV24fcc0ff1e80db2b74a2c3d7a8f55b2b
p2854
aVea3a0d40c09f67b0b87a9b0ec57447e4
p2855
aV601dd070f187626ab4fd449226afd297
p2856
atp2857
Rp2858
.